

Microchip MPLAB XC8 Assembler V2.41 build 20230208172133 
                                                                                               Fri Oct 20 19:45:14 2023

Microchip MPLAB XC8 C Compiler v2.41 (Free license) build 20230208172133 Og1 
     1                           	processor	18F4620
     2                           	fnconf	rparam,??,?,0
     3                           	pagewidth 120
     4                           	opt	flic
     5                           	psect	idataCOMRAM,global,class=CODE,delta=1,noexec
     6                           	psect	idataBANK0,global,class=CODE,delta=1,noexec
     7                           	psect	smallconst,global,reloc=2,class=SMALLCONST,delta=1,noexec
     8                           	psect	cinit,global,reloc=2,class=CODE,delta=1
     9                           	psect	bssCOMRAM,global,class=COMRAM,space=1,delta=1,lowdata,noexec
    10                           	psect	dataCOMRAM,global,class=COMRAM,space=1,delta=1,lowdata,noexec
    11                           	psect	bssBANK0,global,class=BANK0,space=1,delta=1,lowdata,noexec
    12                           	psect	dataBANK0,global,class=BANK0,space=1,delta=1,lowdata,noexec
    13                           	psect	cstackBANK0,global,class=BANK0,space=1,delta=1,lowdata,noexec
    14                           	psect	cstackCOMRAM,global,class=COMRAM,space=1,delta=1,lowdata,noexec
    15                           	psect	text0,global,reloc=2,class=CODE,delta=1
    16                           	psect	text1,global,reloc=2,class=CODE,delta=1
    17                           	psect	text2,global,reloc=2,class=CODE,delta=1
    18                           	psect	text3,global,reloc=2,class=CODE,delta=1
    19                           	psect	text4,global,reloc=2,class=CODE,delta=1
    20                           	psect	text5,global,reloc=2,class=CODE,delta=1
    21                           	psect	text6,global,reloc=2,class=CODE,delta=1
    22                           	psect	text7,global,reloc=2,class=CODE,delta=1
    23                           	psect	text8,global,reloc=2,class=CODE,delta=1
    24                           	psect	text9,global,reloc=2,class=CODE,delta=1
    25                           	psect	text10,global,reloc=2,class=CODE,delta=1
    26                           	psect	text11,global,reloc=2,class=CODE,delta=1
    27                           	psect	text12,global,reloc=2,class=CODE,delta=1
    28                           	psect	text13,global,reloc=2,class=CODE,delta=1
    29                           	psect	text14,global,reloc=2,class=CODE,delta=1
    30                           	psect	text15,global,reloc=2,class=CODE,delta=1
    31                           	psect	text16,global,reloc=2,class=CODE,delta=1
    32                           	psect	text17,global,reloc=2,class=CODE,delta=1
    33                           	psect	text18,global,reloc=2,class=CODE,delta=1
    34                           	psect	text19,global,reloc=2,class=CODE,delta=1
    35                           	psect	text20,global,reloc=2,class=CODE,delta=1
    36                           	psect	text21,global,reloc=2,class=CODE,delta=1
    37                           	psect	text22,global,reloc=2,class=CODE,delta=1
    38                           	psect	text23,global,reloc=2,class=CODE,delta=1
    39                           	psect	text24,global,reloc=2,class=CODE,delta=1,inline
    40                           	psect	text25,global,reloc=2,class=CODE,delta=1,inline
    41                           	psect	text26,global,reloc=2,class=CODE,delta=1,inline
    42                           	psect	text27,global,reloc=2,class=CODE,delta=1,group=1
    43                           	psect	text28,global,reloc=2,class=CODE,delta=1,group=1
    44                           	psect	text29,global,reloc=2,class=CODE,delta=1
    45                           	psect	text30,global,reloc=2,class=CODE,delta=1
    46                           	psect	intcode,global,reloc=2,class=CODE,delta=1
    47                           	psect	intcode_body,global,reloc=2,class=CODE,delta=1
    48                           	psect	text32,global,reloc=2,class=CODE,delta=1
    49                           	psect	text33,global,reloc=2,class=CODE,delta=1
    50                           	psect	text34,global,reloc=2,class=CODE,delta=1
    51                           	psect	text35,global,reloc=2,class=CODE,delta=1
    52                           	psect	text36,global,reloc=2,class=CODE,delta=1
    53                           	psect	text37,global,reloc=2,class=CODE,delta=1
    54                           	psect	text38,global,reloc=2,class=CODE,delta=1
    55                           	psect	text39,global,reloc=2,class=CODE,delta=1
    56                           	psect	text40,global,reloc=2,class=CODE,delta=1
    57                           	psect	text41,global,reloc=2,class=CODE,delta=1
    58                           	psect	text42,global,reloc=2,class=CODE,delta=1
    59                           	psect	text43,global,reloc=2,class=CODE,delta=1
    60                           	psect	text44,global,reloc=2,class=CODE,delta=1
    61                           	psect	text45,global,reloc=2,class=CODE,delta=1
    62                           	psect	text46,global,reloc=2,class=CODE,delta=1
    63                           	psect	text47,global,reloc=2,class=CODE,delta=1
    64                           	psect	text48,global,reloc=2,class=CODE,delta=1
    65                           	psect	text49,global,reloc=2,class=CODE,delta=1
    66                           	psect	intsave_regs,global,class=BIGRAM,space=1,delta=1,noexec
    67                           	psect	rparam,global,class=COMRAM,space=1,delta=1,noexec
    68                           	psect	temp,global,ovrld,common,class=COMRAM,space=1,delta=1
    69                           	psect	idloc,global,abs,ovrld,class=IDLOC,space=5,delta=1,noexec
    70                           	psect	config,global,abs,ovrld,class=CONFIG,space=4,delta=1,noexec
    71   000000                     
    72                           ; Version 2.40
    73                           ; Generated 17/11/2021 GMT
    74                           ; 
    75                           ; Copyright © 2021, Microchip Technology Inc. and its subsidiaries ("Microchip")
    76                           ; All rights reserved.
    77                           ; 
    78                           ; This software is developed by Microchip Technology Inc. and its subsidiaries ("Microch
      +                          ip").
    79                           ; 
    80                           ; Redistribution and use in source and binary forms, with or without modification, are
    81                           ; permitted provided that the following conditions are met:
    82                           ; 
    83                           ;     1. Redistributions of source code must retain the above copyright notice, this lis
      +                          t of
    84                           ;        conditions and the following disclaimer.
    85                           ; 
    86                           ;     2. Redistributions in binary form must reproduce the above copyright notice, this 
      +                          list
    87                           ;        of conditions and the following disclaimer in the documentation and/or other
    88                           ;        materials provided with the distribution. Publication is not required when
    89                           ;        this file is used in an embedded application.
    90                           ; 
    91                           ;     3. Microchip's name may not be used to endorse or promote products derived from th
      +                          is
    92                           ;        software without specific prior written permission.
    93                           ; 
    94                           ; THIS SOFTWARE IS PROVIDED BY MICROCHIP "AS IS" AND ANY EXPRESS OR IMPLIED WARRANTIES,
    95                           ; INCLUDING, BUT NOT LIMITED TO, THE IMPLIED WARRANTIES OF MERCHANTABILITY AND FITNESS F
      +                          OR
    96                           ; PURPOSE ARE DISCLAIMED.  IN NO EVENT SHALL MICROCHIP BE LIABLE FOR ANY DIRECT, INDIREC
      +                          T,
    97                           ; INCIDENTAL, SPECIAL, EXEMPLARY, OR CONSEQUENTIAL DAMAGES (INCLUDING BUT NOT LIMITED TO
    98                           ; PROCUREMENT OF SUBSTITUTE GOODS OR SERVICES; LOSS OF USE, DATA OR PROFITS; OR BUSINESS
    99                           ; INTERRUPTION) HOWSOEVER CAUSED AND ON ANY THEORY OF LIABILITY, WHETHER IN CONTRACT, ST
      +                          RICT
   100                           ; LIABILITY, OR TORT (INCLUDING NEGLIGENCE OR OTHERWISE) ARISING IN ANY WAY OUT OF THE U
      +                          SE OF
   101                           ; THIS SOFTWARE, EVEN IF ADVISED OF THE POSSIBILITY OF SUCH DAMAGE.
   102                           ; 
   103                           ; 
   104                           ; Code-generator required, PIC18F4620 Definitions
   105                           ; 
   106                           ; SFR Addresses
   107   000000                     
   108                           	psect	idataCOMRAM
   109   00301E                     __pidataCOMRAM:
   110                           	callstack 0
   111                           
   112                           ;initializer for _Hours
   113   00301E  0017               	dw	23
   114                           
   115                           ;initializer for _Minutes
   116   003020  003B               	dw	59
   117                           
   118                           ;initializer for _RB7_Flag
   119   003022  01                 	db	1
   120                           
   121                           ;initializer for _RB6_Flag
   122   003023  01                 	db	1
   123                           
   124                           ;initializer for _RB5_Flag
   125   003024  01                 	db	1
   126                           
   127                           ;initializer for _RB4_Flag
   128   003025  01                 	db	1
   129                           
   130                           ;initializer for _lcd_1
   131   003026  04                 	db	4
   132   003027  0C                 	db	12
   133   003028  22                 	db	34
   134   003029  2A                 	db	42
   135   00302A  32                 	db	50
   136   00302B  3A                 	db	58
   137                           
   138                           ;initializer for _seg_pin_6
   139   00302C  29                 	db	41
   140                           
   141                           ;initializer for _seg_pin_5
   142   00302D  21                 	db	33
   143                           
   144                           ;initializer for _seg_pin_4
   145   00302E  19                 	db	25
   146                           
   147                           ;initializer for _seg_pin_3
   148   00302F  11                 	db	17
   149                           
   150                           ;initializer for _seg_pin_2
   151   003030  09                 	db	9
   152                           
   153                           ;initializer for _seg_pin_1
   154   003031  01                 	db	1
   155                           
   156                           ;initializer for _led2
   157   003032  10                 	db	16
   158                           
   159                           	psect	idataBANK0
   160   002F1A                     __pidataBANK0:
   161                           	callstack 0
   162                           
   163                           ;initializer for _port_register
   164   002F1A  80                 	db	128
   165   002F1B  0F                 	db	15
   166   002F1C  81                 	db	129
   167   002F1D  0F                 	db	15
   168   002F1E  82                 	db	130
   169   002F1F  0F                 	db	15
   170   002F20  83                 	db	131
   171   002F21  0F                 	db	15
   172   002F22  84                 	db	132
   173   002F23  0F                 	db	15
   174                           
   175                           ;initializer for _lat_register
   176   002F24  89                 	db	137
   177   002F25  0F                 	db	15
   178   002F26  8A                 	db	138
   179   002F27  0F                 	db	15
   180   002F28  8B                 	db	139
   181   002F29  0F                 	db	15
   182   002F2A  8C                 	db	140
   183   002F2B  0F                 	db	15
   184   002F2C  8D                 	db	141
   185   002F2D  0F                 	db	15
   186                           
   187                           ;initializer for _tris_register
   188   002F2E  92                 	db	146
   189   002F2F  0F                 	db	15
   190   002F30  93                 	db	147
   191   002F31  0F                 	db	15
   192   002F32  94                 	db	148
   193   002F33  0F                 	db	15
   194   002F34  95                 	db	149
   195   002F35  0F                 	db	15
   196   002F36  96                 	db	150
   197   002F37  0F                 	db	15
   198                           
   199                           ;initializer for _port_registers
   200   002F38  80                 	db	128
   201   002F39  0F                 	db	15
   202   002F3A  81                 	db	129
   203   002F3B  0F                 	db	15
   204   002F3C  82                 	db	130
   205   002F3D  0F                 	db	15
   206   002F3E  83                 	db	131
   207   002F3F  0F                 	db	15
   208   002F40  84                 	db	132
   209   002F41  0F                 	db	15
   210                           
   211                           ;initializer for _keypad1
   212   002F42  03                 	db	3
   213   002F43  0B                 	db	11
   214   002F44  13                 	db	19
   215   002F45  1B                 	db	27
   216   002F46  63                 	db	99
   217   002F47  6B                 	db	107
   218   002F48  73                 	db	115
   219   002F49  7B                 	db	123
   220                           
   221                           ;initializer for _timer0_counter_obj
   222   002F4A  00                 	db	0
   223   002F4B  00                 	db	0
   224   002F4C  00                 	db	0
   225   002F4D  00                 	db	0
   226   002F4E  0000               	dw	0
   227   002F50  02                 	db	2
   228                           
   229                           ;initializer for _segment_1
   230   002F51  02                 	db	2
   231   002F52  0A                 	db	10
   232   002F53  12                 	db	18
   233   002F54  1A                 	db	26
   234   002F55  00                 	db	0
   235                           
   236                           	psect	smallconst
   237   001000                     __psmallconst:
   238                           	callstack 0
   239   001000  00                 	db	0
   240   001001                     _btn_values:
   241                           	callstack 0
   242   001001  37                 	db	55
   243   001002  38                 	db	56
   244   001003  39                 	db	57
   245   001004  2F                 	db	47
   246   001005  34                 	db	52
   247   001006  35                 	db	53
   248   001007  36                 	db	54
   249   001008  2A                 	db	42
   250   001009  31                 	db	49
   251   00100A  32                 	db	50
   252   00100B  33                 	db	51
   253   00100C  2D                 	db	45
   254   00100D  23                 	db	35
   255   00100E  30                 	db	48
   256   00100F  3D                 	db	61
   257   001010  2B                 	db	43
   258   001011                     __end_of_btn_values:
   259                           	callstack 0
   260   000000                     _SPBRGH	set	4016
   261   000000                     _SPBRG	set	4015
   262   000000                     _TXREG	set	4013
   263   000000                     _TXSTAbits	set	4012
   264   000000                     _RCREG	set	4014
   265   000000                     _RCSTAbits	set	4011
   266   000000                     _TMR3L	set	4018
   267   000000                     _TMR3H	set	4019
   268   000000                     _TMR1L	set	4046
   269   000000                     _TMR1H	set	4047
   270   000000                     _TMR0L	set	4054
   271   000000                     _TMR0H	set	4055
   272   000000                     _INTCON2bits	set	4081
   273   000000                     _SSPSTATbits	set	4039
   274   000000                     _SSPADD	set	4040
   275   000000                     _SSPCON2bits	set	4037
   276   000000                     _SSPCON1bits	set	4038
   277   000000                     _T3CONbits	set	4017
   278   000000                     _CCPR2H	set	4028
   279   000000                     _CCPR2L	set	4027
   280   000000                     _CCPR1H	set	4031
   281   000000                     _CCPR1L	set	4030
   282   000000                     _CCP2CONbits	set	4026
   283   000000                     _CCP1CONbits	set	4029
   284   000000                     _ADCON1bits	set	4033
   285   000000                     _ADRESL	set	4035
   286   000000                     _ADRESH	set	4036
   287   000000                     _ADCON2bits	set	4032
   288   000000                     _ADCON0bits	set	4034
   289   000000                     _EECON2	set	4007
   290   000000                     _TRISD	set	3989
   291   000000                     _TRISC	set	3988
   292   000000                     _TRISB	set	3987
   293   000000                     _TRISE	set	3990
   294   000000                     _PORTBbits	set	3969
   295   000000                     _TRISCbits	set	3988
   296   000000                     _PIE1bits	set	3997
   297   000000                     _EECON1bits	set	4006
   298   000000                     _EEDATA	set	4008
   299   000000                     _EEADR	set	4009
   300   000000                     _EEADRH	set	4010
   301   000000                     _INTCONbits	set	4082
   302   000000                     _LATA	set	3977
   303   000000                     _TRISA	set	3986
   304   000000                     _PORTE	set	3972
   305   000000                     _PORTD	set	3971
   306   000000                     _PORTC	set	3970
   307   000000                     _PORTB	set	3969
   308   000000                     _PORTA	set	3968
   309   000000                     _PIE2bits	set	4000
   310   000000                     _PIR1bits	set	3998
   311   000000                     _PIR2bits	set	4001
   312   000000                     _LATE	set	3981
   313   000000                     _LATD	set	3980
   314   000000                     _LATC	set	3979
   315   000000                     _LATB	set	3978
   316   000000                     _TMR2	set	4044
   317   000000                     _T2CONbits	set	4042
   318   000000                     _T1CONbits	set	4045
   319   000000                     _T0CONbits	set	4053
   320   000000                     _INTCON3bits	set	4080
   321   000000                     _SSPBUF	set	4041
   322   000000                     _BAUDCONbits	set	4024
   323   001011                     STR_12:
   324   001011  57                 	db	87	;'W'
   325   001012  72                 	db	114	;'r'
   326   001013  6F                 	db	111	;'o'
   327   001014  6E                 	db	110	;'n'
   328   001015  67                 	db	103	;'g'
   329   001016  20                 	db	32
   330   001017  50                 	db	80	;'P'
   331   001018  61                 	db	97	;'a'
   332   001019  73                 	db	115	;'s'
   333   00101A  73                 	db	115	;'s'
   334   00101B  77                 	db	119	;'w'
   335   00101C  6F                 	db	111	;'o'
   336   00101D  72                 	db	114	;'r'
   337   00101E  64                 	db	100	;'d'
   338   00101F  00                 	db	0
   339   001020                     STR_5:
   340   001020  50                 	db	80	;'P'
   341   001021  72                 	db	114	;'r'
   342   001022  65                 	db	101	;'e'
   343   001023  73                 	db	115	;'s'
   344   001024  73                 	db	115	;'s'
   345   001025  20                 	db	32
   346   001026  31                 	db	49	;'1'
   347   001027  20                 	db	32
   348   001028  74                 	db	116	;'t'
   349   001029  6F                 	db	111	;'o'
   350   00102A  20                 	db	32
   351   00102B  73                 	db	115	;'s'
   352   00102C  65                 	db	101	;'e'
   353   00102D  74                 	db	116	;'t'
   354   00102E  00                 	db	0
   355   00102F                     STR_4:
   356   00102F  4D                 	db	77	;'M'
   357   001030  4F                 	db	79	;'O'
   358   001031  48                 	db	72	;'H'
   359   001032  41                 	db	65	;'A'
   360   001033  4D                 	db	77	;'M'
   361   001034  45                 	db	69	;'E'
   362   001035  44                 	db	68	;'D'
   363   001036  20                 	db	32
   364   001037  47                 	db	71	;'G'
   365   001038  61                 	db	97	;'a'
   366   001039  7A                 	db	122	;'z'
   367   00103A  61                 	db	97	;'a'
   368   00103B  72                 	db	114	;'r'
   369   00103C  00                 	db	0
   370   00103D                     STR_3:
   371   00103D  57                 	db	87	;'W'
   372   00103E  45                 	db	69	;'E'
   373   00103F  4C                 	db	76	;'L'
   374   001040  43                 	db	67	;'C'
   375   001041  4F                 	db	79	;'O'
   376   001042  4D                 	db	77	;'M'
   377   001043  45                 	db	69	;'E'
   378   001044  20                 	db	32
   379   001045  54                 	db	84	;'T'
   380   001046  4F                 	db	79	;'O'
   381   001047  00                 	db	0
   382   001048                     STR_13:
   383   001048  70                 	db	112	;'p'
   384   001049  72                 	db	114	;'r'
   385   00104A  65                 	db	101	;'e'
   386   00104B  73                 	db	115	;'s'
   387   00104C  73                 	db	115	;'s'
   388   00104D  20                 	db	32
   389   00104E  31                 	db	49	;'1'
   390   00104F  20                 	db	32
   391   001050  74                 	db	116	;'t'
   392   001051  6F                 	db	111	;'o'
   393   001052  00                 	db	0
   394   001053                     STR_7:
   395   001053  53                 	db	83	;'S'
   396   001054  65                 	db	101	;'e'
   397   001055  63                 	db	99	;'c'
   398   001056  6F                 	db	111	;'o'
   399   001057  6E                 	db	110	;'n'
   400   001058  64                 	db	100	;'d'
   401   001059  73                 	db	115	;'s'
   402   00105A  3A                 	db	58	;':'
   403   00105B  20                 	db	32
   404   00105C  00                 	db	0
   405   00105D                     STR_8:
   406   00105D  4D                 	db	77	;'M'
   407   00105E  69                 	db	105	;'i'
   408   00105F  6E                 	db	110	;'n'
   409   001060  75                 	db	117	;'u'
   410   001061  74                 	db	116	;'t'
   411   001062  65                 	db	101	;'e'
   412   001063  73                 	db	115	;'s'
   413   001064  3A                 	db	58	;':'
   414   001065  20                 	db	32
   415   001066  00                 	db	0
   416   001067                     STR_6:
   417   001067  73                 	db	115	;'s'
   418   001068  65                 	db	101	;'e'
   419   001069  74                 	db	116	;'t'
   420   00106A  20                 	db	32
   421   00106B  63                 	db	99	;'c'
   422   00106C  6C                 	db	108	;'l'
   423   00106D  6F                 	db	111	;'o'
   424   00106E  63                 	db	99	;'c'
   425   00106F  6B                 	db	107	;'k'
   426   001070  00                 	db	0
   427   001071                     STR_9:
   428   001071  48                 	db	72	;'H'
   429   001072  6F                 	db	111	;'o'
   430   001073  75                 	db	117	;'u'
   431   001074  72                 	db	114	;'r'
   432   001075  73                 	db	115	;'s'
   433   001076  3A                 	db	58	;':'
   434   001077  20                 	db	32
   435   001078  00                 	db	0
   436   001079                     STR_1:
   437   001079  25                 	db	37
   438   00107A  69                 	db	105	;'i'
   439   00107B  00                 	db	0
   440   00107C  00                 	db	0	; dummy byte at the end
   441   000000                     
   442                           ; #config settings
   443                           
   444                           	psect	cinit
   445   002D20                     __pcinit:
   446                           	callstack 0
   447   002D20                     start_initialization:
   448                           	callstack 0
   449   002D20                     __initialization:
   450                           	callstack 0
   451                           
   452                           ; Initialize objects allocated to BANK0 (60 bytes)
   453                           ; load TBLPTR registers with __pidataBANK0
   454   002D20  0E1A               	movlw	low __pidataBANK0
   455   002D22  6EF6               	movwf	tblptrl,c
   456   002D24  0E2F               	movlw	high __pidataBANK0
   457   002D26  6EF7               	movwf	tblptrh,c
   458   002D28  0E00               	movlw	low (__pidataBANK0 shr (0+16))
   459   002D2A  6EF8               	movwf	tblptru,c
   460   002D2C  EE00  F080         	lfsr	0,__pdataBANK0
   461   002D30  EE10 F03C          	lfsr	1,60
   462   002D34                     copy_data0:
   463   002D34  0009               	tblrd		*+
   464   002D36  CFF5 FFEE          	movff	tablat,postinc0
   465   002D3A  50E5               	movf	postdec1,w,c
   466   002D3C  50E1               	movf	fsr1l,w,c
   467   002D3E  E1FA               	bnz	copy_data0
   468                           
   469                           ; Initialize objects allocated to COMRAM (21 bytes)
   470                           ; load TBLPTR registers with __pidataCOMRAM
   471   002D40  0E1E               	movlw	low __pidataCOMRAM
   472   002D42  6EF6               	movwf	tblptrl,c
   473   002D44  0E30               	movlw	high __pidataCOMRAM
   474   002D46  6EF7               	movwf	tblptrh,c
   475   002D48  0E00               	movlw	low (__pidataCOMRAM shr (0+16))
   476   002D4A  6EF8               	movwf	tblptru,c
   477   002D4C  EE00  F065         	lfsr	0,__pdataCOMRAM
   478   002D50  EE10 F015          	lfsr	1,21
   479   002D54                     copy_data1:
   480   002D54  0009               	tblrd		*+
   481   002D56  CFF5 FFEE          	movff	tablat,postinc0
   482   002D5A  50E5               	movf	postdec1,w,c
   483   002D5C  50E1               	movf	fsr1l,w,c
   484   002D5E  E1FA               	bnz	copy_data1
   485                           
   486                           ; Clear objects allocated to BANK0 (30 bytes)
   487   002D60  EE00  F0BC         	lfsr	0,__pbssBANK0
   488   002D64  0E1E               	movlw	30
   489   002D66                     clear_0:
   490   002D66  6AEE               	clrf	postinc0,c
   491   002D68  06E8               	decf	wreg,f,c
   492   002D6A  E1FD               	bnz	clear_0
   493                           
   494                           ; Clear objects allocated to COMRAM (63 bytes)
   495   002D6C  EE00  F001         	lfsr	0,__pbssCOMRAM
   496   002D70  0E3F               	movlw	63
   497   002D72                     clear_1:
   498   002D72  6AEE               	clrf	postinc0,c
   499   002D74  06E8               	decf	wreg,f,c
   500   002D76  E1FD               	bnz	clear_1
   501   002D78                     end_of_initialization:
   502                           	callstack 0
   503   002D78                     __end_of__initialization:
   504                           	callstack 0
   505   002D78  907A               	bcf	int$flags,0,c	;clear compiler interrupt flag (level 1)
   506   002D7A  927A               	bcf	int$flags,1,c	;clear compiler interrupt flag (level 2)
   507   002D7C  0100               	movlb	0
   508   002D7E  EF3F  F008         	goto	_main	;jump to C main() function
   509                           
   510                           	psect	bssCOMRAM
   511   000001                     __pbssCOMRAM:
   512                           	callstack 0
   513   000001                     _Seconds:
   514                           	callstack 0
   515   000001                     	ds	2
   516   000003                     _timer3_preload:
   517                           	callstack 0
   518   000003                     	ds	2
   519   000005                     _timer1_preload:
   520                           	callstack 0
   521   000005                     	ds	2
   522   000007                     _timer0_preload:
   523                           	callstack 0
   524   000007                     	ds	2
   525   000009                     _RB6_InterruptHandler_HIGH:
   526                           	callstack 0
   527   000009                     	ds	2
   528   00000B                     _RB5_InterruptHandler_LOW:
   529                           	callstack 0
   530   00000B                     	ds	2
   531   00000D                     _RB5_InterruptHandler_HIGH:
   532                           	callstack 0
   533   00000D                     	ds	2
   534   00000F                     _RB4_InterruptHandler_LOW:
   535                           	callstack 0
   536   00000F                     	ds	2
   537   000011                     _RB4_InterruptHandler_HIGH:
   538                           	callstack 0
   539   000011                     	ds	2
   540   000013                     _INT2_InterruptHandler:
   541                           	callstack 0
   542   000013                     	ds	2
   543   000015                     _INT1_InterruptHandler:
   544                           	callstack 0
   545   000015                     	ds	2
   546   000017                     _INT0_InterruptHandler:
   547                           	callstack 0
   548   000017                     	ds	2
   549   000019                     _I2C_DefaultInterruptHandle:
   550                           	callstack 0
   551   000019                     	ds	2
   552   00001B                     _I2C_Report_Write_Collision_InterruptHandler:
   553                           	callstack 0
   554   00001B                     	ds	2
   555   00001D                     CCP_Compare_Mode_Set_Value@F3106:
   556                           	callstack 0
   557   00001D                     	ds	2
   558   00001F                     _CCP2_InterruptHandler:
   559                           	callstack 0
   560   00001F                     	ds	2
   561   000021                     _CCP1_InterruptHandler:
   562                           	callstack 0
   563   000021                     	ds	2
   564   000023                     _ADC_InterruptHandler:
   565                           	callstack 0
   566   000023                     	ds	2
   567   000025                     _counter:
   568                           	callstack 0
   569   000025                     	ds	1
   570   000026                     _timer2_preload:
   571                           	callstack 0
   572   000026                     	ds	1
   573   000027                     relay_turn_off@F3052:
   574                           	callstack 0
   575   000027                     	ds	1
   576   000028                     relay_turn_on@F3047:
   577                           	callstack 0
   578   000028                     	ds	1
   579   000029                     relay_initialize@F3042:
   580                           	callstack 0
   581   000029                     	ds	1
   582   00002A                     led_turn_toggle@F3063:
   583                           	callstack 0
   584   00002A                     	ds	1
   585   00002B                     led_turn_off@F3058:
   586                           	callstack 0
   587   00002B                     	ds	1
   588   00002C                     led_turn_on@F3053:
   589                           	callstack 0
   590   00002C                     	ds	1
   591   00002D                     led_initialize@F3048:
   592                           	callstack 0
   593   00002D                     	ds	1
   594   00002E                     dc_motor_stop@F3070:
   595                           	callstack 0
   596   00002E                     	ds	1
   597   00002F                     dc_motor_stop@F3068:
   598                           	callstack 0
   599   00002F                     	ds	1
   600   000030                     dc_motor_move_left@F3063:
   601                           	callstack 0
   602   000030                     	ds	1
   603   000031                     dc_motor_move_left@F3061:
   604                           	callstack 0
   605   000031                     	ds	1
   606   000032                     dc_motor_move_right@F3056:
   607                           	callstack 0
   608   000032                     	ds	1
   609   000033                     dc_motor_move_right@F3054:
   610                           	callstack 0
   611   000033                     	ds	1
   612   000034                     dc_motor_initialize@F3049:
   613                           	callstack 0
   614   000034                     	ds	1
   615   000035                     dc_motor_initialize@F3047:
   616                           	callstack 0
   617   000035                     	ds	1
   618   000036                     _Counter_Value:
   619                           	callstack 0
   620   000036                     	ds	2
   621   000038                     _value32:
   622                           	callstack 0
   623   000038                     	ds	1
   624   000039                     _value31:
   625                           	callstack 0
   626   000039                     	ds	1
   627   00003A                     _value22:
   628                           	callstack 0
   629   00003A                     	ds	1
   630   00003B                     _value21:
   631                           	callstack 0
   632   00003B                     	ds	1
   633   00003C                     _value12:
   634                           	callstack 0
   635   00003C                     	ds	1
   636   00003D                     _value11:
   637                           	callstack 0
   638   00003D                     	ds	1
   639   00003E                     _key_value:
   640                           	callstack 0
   641   00003E                     	ds	1
   642   00003F                     _led1:
   643                           	callstack 0
   644   00003F                     	ds	1
   645                           
   646                           	psect	dataCOMRAM
   647   000065                     __pdataCOMRAM:
   648                           	callstack 0
   649   000065                     _Hours:
   650                           	callstack 0
   651   000065                     	ds	2
   652   000067                     _Minutes:
   653                           	callstack 0
   654   000067                     	ds	2
   655   000069                     _RB7_Flag:
   656                           	callstack 0
   657   000069                     	ds	1
   658   00006A                     _RB6_Flag:
   659                           	callstack 0
   660   00006A                     	ds	1
   661   00006B                     _RB5_Flag:
   662                           	callstack 0
   663   00006B                     	ds	1
   664   00006C                     _RB4_Flag:
   665                           	callstack 0
   666   00006C                     	ds	1
   667   00006D                     _lcd_1:
   668                           	callstack 0
   669   00006D                     	ds	6
   670   000073                     _seg_pin_6:
   671                           	callstack 0
   672   000073                     	ds	1
   673   000074                     _seg_pin_5:
   674                           	callstack 0
   675   000074                     	ds	1
   676   000075                     _seg_pin_4:
   677                           	callstack 0
   678   000075                     	ds	1
   679   000076                     _seg_pin_3:
   680                           	callstack 0
   681   000076                     	ds	1
   682   000077                     _seg_pin_2:
   683                           	callstack 0
   684   000077                     	ds	1
   685   000078                     _seg_pin_1:
   686                           	callstack 0
   687   000078                     	ds	1
   688   000079                     _led2:
   689                           	callstack 0
   690   000079                     	ds	1
   691                           
   692                           	psect	bssBANK0
   693   0000BC                     __pbssBANK0:
   694                           	callstack 0
   695   0000BC                     	ds	6
   696   0000C2                     _EUSART_OverrunErrorHandler:
   697                           	callstack 0
   698   0000C2                     	ds	2
   699   0000C4                     _EUSART_FramingErrorHandler:
   700                           	callstack 0
   701   0000C4                     	ds	2
   702   0000C6                     _EUSART_RxInterruptHandler:
   703                           	callstack 0
   704   0000C6                     	ds	2
   705   0000C8                     _EUSART_TxInterruptHandler:
   706                           	callstack 0
   707   0000C8                     	ds	2
   708   0000CA                     _TMR3_InterruptHandler:
   709                           	callstack 0
   710   0000CA                     	ds	2
   711   0000CC                     _TMR2_InterruptHandler:
   712                           	callstack 0
   713   0000CC                     	ds	2
   714   0000CE                     _TMR1_InterruptHandler:
   715                           	callstack 0
   716   0000CE                     	ds	2
   717   0000D0                     _TMR0_InterruptHandler:
   718                           	callstack 0
   719   0000D0                     	ds	2
   720   0000D2                     _RB7_InterruptHandler_LOW:
   721                           	callstack 0
   722   0000D2                     	ds	2
   723   0000D4                     _RB7_InterruptHandler_HIGH:
   724                           	callstack 0
   725   0000D4                     	ds	2
   726   0000D6                     _RB6_InterruptHandler_LOW:
   727                           	callstack 0
   728   0000D6                     	ds	2
   729   0000D8                     _I2C_Report_Receive_Overflow_InterruptHandle:
   730                           	callstack 0
   731   0000D8                     	ds	2
   732                           
   733                           	psect	dataBANK0
   734   000080                     __pdataBANK0:
   735                           	callstack 0
   736   000080                     _port_register:
   737                           	callstack 0
   738   000080                     	ds	10
   739   00008A                     _lat_register:
   740                           	callstack 0
   741   00008A                     	ds	10
   742   000094                     _tris_register:
   743                           	callstack 0
   744   000094                     	ds	10
   745   00009E                     _port_registers:
   746                           	callstack 0
   747   00009E                     	ds	10
   748   0000A8                     _keypad1:
   749                           	callstack 0
   750   0000A8                     	ds	8
   751   0000B0                     _timer0_counter_obj:
   752                           	callstack 0
   753   0000B0                     	ds	7
   754   0000B7                     _segment_1:
   755                           	callstack 0
   756   0000B7                     	ds	5
   757                           
   758                           	psect	cstackBANK0
   759   0000DA                     __pcstackBANK0:
   760                           	callstack 0
   761   0000DA                     main@mul_seconds:
   762                           	callstack 0
   763                           
   764                           ; 2 bytes @ 0x0
   765   0000DA                     	ds	2
   766   0000DC                     main@mul_minutes:
   767                           	callstack 0
   768                           
   769                           ; 2 bytes @ 0x2
   770   0000DC                     	ds	2
   771   0000DE                     main@ret:
   772                           	callstack 0
   773                           
   774                           ; 1 bytes @ 0x4
   775   0000DE                     	ds	1
   776                           
   777                           	psect	cstackCOMRAM
   778   000040                     __pcstackCOMRAM:
   779                           	callstack 0
   780   000040                     RB4_ISR@RB4_Source:
   781                           	callstack 0
   782   000040                     RB5_ISR@RB5_Source:
   783                           	callstack 0
   784   000040                     RB6_ISR@RB6_Source:
   785                           	callstack 0
   786   000040                     RB7_ISR@RB7_Source:
   787                           	callstack 0
   788                           
   789                           ; 1 bytes @ 0x0
   790   000040                     	ds	1
   791   000041                     ?___lwdiv:
   792                           	callstack 0
   793   000041                     ?___lwmod:
   794                           	callstack 0
   795   000041                     gpio_pin_direction_intialize@pin_config:
   796                           	callstack 0
   797   000041                     gpio_pin_write_logic@pin_config:
   798                           	callstack 0
   799   000041                     gpio_pin_read_logic@pin_config:
   800                           	callstack 0
   801   000041                     Timer0_Write_Value@_timer:
   802                           	callstack 0
   803   000041                     Timer0_Read_Value@_timer:
   804                           	callstack 0
   805   000041                     Timer0_Prescaler_Config@_timer:
   806                           	callstack 0
   807   000041                     Timer0_Mode_Select@_timer:
   808                           	callstack 0
   809   000041                     Timer0_Register_Size_Config@_timer:
   810                           	callstack 0
   811   000041                     ___lwdiv@dividend:
   812                           	callstack 0
   813   000041                     ___lwmod@dividend:
   814                           	callstack 0
   815                           
   816                           ; 2 bytes @ 0x1
   817   000041                     	ds	2
   818   000043                     ??_gpio_pin_direction_intialize:
   819   000043                     ??_Timer0_Prescaler_Config:
   820   000043                     gpio_pin_write_logic@logic:
   821                           	callstack 0
   822   000043                     gpio_pin_read_logic@logic:
   823                           	callstack 0
   824   000043                     Timer0_Write_Value@_value:
   825                           	callstack 0
   826   000043                     Timer0_Read_Value@_value:
   827                           	callstack 0
   828   000043                     ___lwdiv@divisor:
   829                           	callstack 0
   830   000043                     ___lwmod@divisor:
   831                           	callstack 0
   832                           
   833                           ; 2 bytes @ 0x3
   834   000043                     	ds	1
   835   000044                     ??_gpio_pin_write_logic:
   836   000044                     Timer0_Init@_timer:
   837                           	callstack 0
   838                           
   839                           ; 2 bytes @ 0x4
   840   000044                     	ds	1
   841   000045                     ??_gpio_pin_read_logic:
   842   000045                     ??_Timer0_Read_Value:
   843   000045                     Timer0_Write_Value@ret:
   844                           	callstack 0
   845   000045                     ___lwdiv@counter:
   846                           	callstack 0
   847   000045                     ___lwmod@counter:
   848                           	callstack 0
   849                           
   850                           ; 1 bytes @ 0x5
   851   000045                     	ds	1
   852   000046                     ??_Timer0_Init:
   853   000046                     ___lwdiv@quotient:
   854                           	callstack 0
   855                           
   856                           ; 2 bytes @ 0x6
   857   000046                     	ds	1
   858   000047                     Timer0_Read_Value@l_tmr0l:
   859                           	callstack 0
   860                           
   861                           ; 1 bytes @ 0x7
   862   000047                     	ds	1
   863   000048                     Timer0_Init@ret:
   864                           	callstack 0
   865   000048                     Timer0_Read_Value@l_tmr0h:
   866                           	callstack 0
   867                           
   868                           ; 1 bytes @ 0x8
   869   000048                     	ds	1
   870   000049                     gpio_pin_direction_intialize@ret:
   871                           	callstack 0
   872   000049                     Timer0_Read_Value@ret:
   873                           	callstack 0
   874                           
   875                           ; 1 bytes @ 0x9
   876   000049                     	ds	1
   877   00004A                     gpio_pin_write_logic@ret:
   878                           	callstack 0
   879   00004A                     gpio_pin_read_logic@ret:
   880                           	callstack 0
   881                           
   882                           ; 1 bytes @ 0xA
   883   00004A                     	ds	1
   884   00004B                     seven_segement_write_number@seg:
   885                           	callstack 0
   886   00004B                     lcd_send_4bits@lcd:
   887                           	callstack 0
   888   00004B                     lcd_4bit_send_enable_signal@lcd:
   889                           	callstack 0
   890   00004B                     keypad_get_value@_keypad_obj:
   891                           	callstack 0
   892   00004B                     keypad_read_switch@keypad:
   893                           	callstack 0
   894   00004B                     keypad_get_value_blocking@_keypad_obj:
   895                           	callstack 0
   896   00004B                     led_turn_on@led:
   897                           	callstack 0
   898   00004B                     led_turn_off@led:
   899                           	callstack 0
   900   00004B                     gpio_pin_intialize@pin_config:
   901                           	callstack 0
   902                           
   903                           ; 2 bytes @ 0xB
   904   00004B                     	ds	2
   905   00004D                     ??_gpio_pin_intialize:
   906   00004D                     ??_led_turn_on:
   907   00004D                     ??_led_turn_off:
   908   00004D                     seven_segement_write_number@number:
   909                           	callstack 0
   910   00004D                     lcd_send_4bits@_data_command:
   911                           	callstack 0
   912   00004D                     lcd_4bit_send_enable_signal@ret:
   913                           	callstack 0
   914   00004D                     keypad_get_value@value:
   915                           	callstack 0
   916   00004D                     keypad_read_switch@status:
   917                           	callstack 0
   918   00004D                     keypad_get_value_blocking@value:
   919                           	callstack 0
   920                           
   921                           ; 2 bytes @ 0xD
   922   00004D                     	ds	1
   923   00004E                     seven_segement_write_number@ret:
   924                           	callstack 0
   925   00004E                     lcd_send_4bits@ret:
   926                           	callstack 0
   927   00004E                     led_turn_on@object:
   928                           	callstack 0
   929   00004E                     led_turn_off@object:
   930                           	callstack 0
   931   00004E                     gpio_pin_intialize@ret:
   932                           	callstack 0
   933                           
   934                           ; 1 bytes @ 0xE
   935   00004E                     	ds	1
   936   00004F                     ??_keypad_get_value:
   937   00004F                     ??_keypad_read_switch:
   938   00004F                     ??_keypad_get_value_blocking:
   939   00004F                     seven_segement_intialize@seg:
   940                           	callstack 0
   941   00004F                     lcd_4bit_send_command@lcd:
   942                           	callstack 0
   943   00004F                     lcd_4bit_send_char_data@lcd:
   944                           	callstack 0
   945   00004F                     keypad_initialize@_keypad_obj:
   946                           	callstack 0
   947   00004F                     led_initialize@led:
   948                           	callstack 0
   949                           
   950                           ; 2 bytes @ 0xF
   951   00004F                     	ds	2
   952   000051                     ??_keypad_initialize:
   953   000051                     ??_led_initialize:
   954   000051                     seven_segement_intialize@ret:
   955                           	callstack 0
   956   000051                     lcd_4bit_send_command@command:
   957                           	callstack 0
   958   000051                     lcd_4bit_send_char_data@data:
   959                           	callstack 0
   960   000051                     keypad_get_value@ret:
   961                           	callstack 0
   962                           
   963                           ; 1 bytes @ 0x11
   964   000051                     	ds	1
   965   000052                     lcd_4bit_send_command@l_data_pins_counter:
   966                           	callstack 0
   967   000052                     lcd_4bit_send_char_data@l_data_pins_counter:
   968                           	callstack 0
   969   000052                     keypad_get_value@column_logic:
   970                           	callstack 0
   971   000052                     led_initialize@ret:
   972                           	callstack 0
   973                           
   974                           ; 1 bytes @ 0x12
   975   000052                     	ds	1
   976   000053                     lcd_4bit_send_command@ret:
   977                           	callstack 0
   978   000053                     lcd_4bit_send_char_data@ret:
   979                           	callstack 0
   980   000053                     keypad_initialize@ret:
   981                           	callstack 0
   982   000053                     keypad_get_value@l_counter:
   983                           	callstack 0
   984   000053                     keypad_read_switch@ret:
   985                           	callstack 0
   986   000053                     led_initialize@object:
   987                           	callstack 0
   988                           
   989                           ; 1 bytes @ 0x13
   990   000053                     	ds	1
   991   000054                     keypad_initialize@rows_counter:
   992                           	callstack 0
   993   000054                     keypad_get_value@l_rows_counter:
   994                           	callstack 0
   995   000054                     lcd_4bit_intialize@lcd:
   996                           	callstack 0
   997   000054                     lcd_4bit_set_cursor@lcd:
   998                           	callstack 0
   999   000054                     keypad_read_switch@i:
  1000                           	callstack 0
  1001                           
  1002                           ; 2 bytes @ 0x14
  1003   000054                     	ds	1
  1004   000055                     keypad_initialize@columns_counter:
  1005                           	callstack 0
  1006   000055                     keypad_get_value@l_columns_counter:
  1007                           	callstack 0
  1008                           
  1009                           ; 1 bytes @ 0x15
  1010   000055                     	ds	1
  1011   000056                     ??_lcd_4bit_intialize:
  1012   000056                     lcd_4bit_set_cursor@row:
  1013                           	callstack 0
  1014   000056                     keypad_read_switch@row:
  1015                           	callstack 0
  1016                           
  1017                           ; 2 bytes @ 0x16
  1018   000056                     	ds	1
  1019   000057                     lcd_4bit_set_cursor@coulmn:
  1020                           	callstack 0
  1021                           
  1022                           ; 1 bytes @ 0x17
  1023   000057                     	ds	1
  1024   000058                     ??_lcd_4bit_set_cursor:
  1025   000058                     lcd_4bit_intialize@l_data_pins_counter:
  1026                           	callstack 0
  1027   000058                     keypad_read_switch@status_pin:
  1028                           	callstack 0
  1029   000058                     keypad_get_value_blocking@column_logic:
  1030                           	callstack 0
  1031                           
  1032                           ; 1 bytes @ 0x18
  1033   000058                     	ds	1
  1034   000059                     lcd_4bit_intialize@ret:
  1035                           	callstack 0
  1036   000059                     keypad_get_value_blocking@l_counter:
  1037                           	callstack 0
  1038   000059                     keypad_read_switch@col:
  1039                           	callstack 0
  1040                           
  1041                           ; 2 bytes @ 0x19
  1042   000059                     	ds	1
  1043   00005A                     lcd_4bit_set_cursor@ret:
  1044                           	callstack 0
  1045   00005A                     keypad_get_value_blocking@l_rows_counter:
  1046                           	callstack 0
  1047                           
  1048                           ; 1 bytes @ 0x1A
  1049   00005A                     	ds	1
  1050   00005B                     keypad_get_value_blocking@l_columns_counter:
  1051                           	callstack 0
  1052   00005B                     lcd_4bit_send_char_data_pos@lcd:
  1053                           	callstack 0
  1054   00005B                     lcd_4bit_send_string_pos@lcd:
  1055                           	callstack 0
  1056                           
  1057                           ; 2 bytes @ 0x1B
  1058   00005B                     	ds	2
  1059   00005D                     lcd_4bit_send_char_data_pos@row:
  1060                           	callstack 0
  1061   00005D                     lcd_4bit_send_string_pos@row:
  1062                           	callstack 0
  1063                           
  1064                           ; 1 bytes @ 0x1D
  1065   00005D                     	ds	1
  1066   00005E                     lcd_4bit_send_char_data_pos@column:
  1067                           	callstack 0
  1068   00005E                     lcd_4bit_send_string_pos@column:
  1069                           	callstack 0
  1070                           
  1071                           ; 1 bytes @ 0x1E
  1072   00005E                     	ds	1
  1073   00005F                     lcd_4bit_send_char_data_pos@data:
  1074                           	callstack 0
  1075   00005F                     lcd_4bit_send_string_pos@str:
  1076                           	callstack 0
  1077                           
  1078                           ; 2 bytes @ 0x1F
  1079   00005F                     	ds	1
  1080   000060                     lcd_4bit_send_char_data_pos@l_data_pins_counter:
  1081                           	callstack 0
  1082                           
  1083                           ; 1 bytes @ 0x20
  1084   000060                     	ds	1
  1085   000061                     lcd_4bit_send_char_data_pos@ret:
  1086                           	callstack 0
  1087   000061                     lcd_4bit_send_string_pos@l_data_pins_counter:
  1088                           	callstack 0
  1089                           
  1090                           ; 1 bytes @ 0x21
  1091   000061                     	ds	1
  1092   000062                     lcd_4bit_send_string_pos@ret:
  1093                           	callstack 0
  1094                           
  1095                           ; 1 bytes @ 0x22
  1096   000062                     	ds	1
  1097   000063                     ??_main:
  1098                           
  1099                           ; 1 bytes @ 0x23
  1100   000063                     	ds	2
  1101                           
  1102 ;;
  1103 ;;Main: autosize = 0, tempsize = 2, incstack = 0, save=0
  1104 ;;
  1105 ;; *************** function _main *****************
  1106 ;; Defined at:
  1107 ;;		line 164 in file "application.c"
  1108 ;; Parameters:    Size  Location     Type
  1109 ;;		None
  1110 ;; Auto vars:     Size  Location     Type
  1111 ;;  mul_minutes     2    2[BANK0 ] int 
  1112 ;;  mul_seconds     2    0[BANK0 ] int 
  1113 ;;  ret             1    4[BANK0 ] unsigned char 
  1114 ;; Return value:  Size  Location     Type
  1115 ;;                  2  1699[None  ] int 
  1116 ;; Registers used:
  1117 ;;		wreg, fsr2l, fsr2h, status,2, status,0, tblptrl, tblptrh, tblptru, prodl, prodh, cstack
  1118 ;; Tracked objects:
  1119 ;;		On entry : 0/0
  1120 ;;		On exit  : 0/0
  1121 ;;		Unchanged: 0/0
  1122 ;; Data sizes:     COMRAM   BANK0   BANK1   BANK2   BANK3   BANK4   BANK5   BANK6   BANK7   BANK8   BANK9  BANK10  BANK1
      +1  BANK12  BANK13  BANK14  BANK15
  1123 ;;      Params:         0       0       0       0       0       0       0       0       0       0       0       0       
      +0       0       0       0       0
  1124 ;;      Locals:         0       5       0       0       0       0       0       0       0       0       0       0       
      +0       0       0       0       0
  1125 ;;      Temps:          2       0       0       0       0       0       0       0       0       0       0       0       
      +0       0       0       0       0
  1126 ;;      Totals:         2       5       0       0       0       0       0       0       0       0       0       0       
      +0       0       0       0       0
  1127 ;;Total ram usage:        7 bytes
  1128 ;; Hardware stack levels required when called: 7
  1129 ;; This function calls:
  1130 ;;		_Timer0_Read_Value
  1131 ;;		_Timer0_Write_Value
  1132 ;;		___lwdiv
  1133 ;;		___lwmod
  1134 ;;		_application_intialize
  1135 ;;		_gpio_pin_write_logic
  1136 ;;		_keypad_get_value
  1137 ;;		_keypad_get_value_blocking
  1138 ;;		_keypad_read_switch
  1139 ;;		_lcd_4bit_send_char_data_pos
  1140 ;;		_lcd_4bit_send_command
  1141 ;;		_lcd_4bit_send_string_pos
  1142 ;;		_led_turn_off
  1143 ;;		_led_turn_on
  1144 ;;		_seven_segement_write_number
  1145 ;; This function is called by:
  1146 ;;		Startup code after reset
  1147 ;; This function uses a non-reentrant model
  1148 ;;
  1149                           
  1150                           	psect	text0
  1151   00107E                     __ptext0:
  1152                           	callstack 0
  1153   00107E                     _main:
  1154                           	callstack 24
  1155   00107E                     
  1156                           ;application.c: 166:     application_intialize();
  1157   00107E  EC8A  F013         	call	_application_intialize	;wreg free
  1158   001082                     
  1159                           ;application.c: 168:      lcd_4bit_send_string_pos(&lcd_1,1,3,"WELCOME TO");
  1160   001082  0E6D               	movlw	low _lcd_1
  1161   001084  6E5B               	movwf	lcd_4bit_send_string_pos@lcd^0,c
  1162   001086  0E00               	movlw	high _lcd_1
  1163   001088  6E5C               	movwf	(lcd_4bit_send_string_pos@lcd+1)^0,c
  1164   00108A  0E01               	movlw	1
  1165   00108C  6E5D               	movwf	lcd_4bit_send_string_pos@row^0,c
  1166   00108E  0E03               	movlw	3
  1167   001090  6E5E               	movwf	lcd_4bit_send_string_pos@column^0,c
  1168   001092  0E3D               	movlw	low STR_3
  1169   001094  6E5F               	movwf	lcd_4bit_send_string_pos@str^0,c
  1170   001096  0E10               	movlw	high STR_3
  1171   001098  6E60               	movwf	(lcd_4bit_send_string_pos@str+1)^0,c
  1172   00109A  EC52  F014         	call	_lcd_4bit_send_string_pos	;wreg free
  1173   00109E                     
  1174                           ;application.c: 169:      _delay((unsigned long)((250)*(8000000/4000.0)));
  1175   00109E  0E03               	movlw	3
  1176   0010A0  6E64               	movwf	(??_main+1)^0,c
  1177   0010A2  0E8A               	movlw	138
  1178   0010A4  6E63               	movwf	??_main^0,c
  1179   0010A6  0E56               	movlw	86
  1180   0010A8                     u7257:
  1181   0010A8  2EE8               	decfsz	wreg,f,c
  1182   0010AA  D7FE               	bra	u7257
  1183   0010AC  2E63               	decfsz	??_main^0,f,c
  1184   0010AE  D7FC               	bra	u7257
  1185   0010B0  2E64               	decfsz	(??_main+1)^0,f,c
  1186   0010B2  D7FA               	bra	u7257
  1187   0010B4                     
  1188                           ;application.c: 170:        lcd_4bit_send_string_pos(&lcd_1,2,3,"MOHAMED Gazar");
  1189   0010B4  0E6D               	movlw	low _lcd_1
  1190   0010B6  6E5B               	movwf	lcd_4bit_send_string_pos@lcd^0,c
  1191   0010B8  0E00               	movlw	high _lcd_1
  1192   0010BA  6E5C               	movwf	(lcd_4bit_send_string_pos@lcd+1)^0,c
  1193   0010BC  0E02               	movlw	2
  1194   0010BE  6E5D               	movwf	lcd_4bit_send_string_pos@row^0,c
  1195   0010C0  0E03               	movlw	3
  1196   0010C2  6E5E               	movwf	lcd_4bit_send_string_pos@column^0,c
  1197   0010C4  0E2F               	movlw	low STR_4
  1198   0010C6  6E5F               	movwf	lcd_4bit_send_string_pos@str^0,c
  1199   0010C8  0E10               	movlw	high STR_4
  1200   0010CA  6E60               	movwf	(lcd_4bit_send_string_pos@str+1)^0,c
  1201   0010CC  EC52  F014         	call	_lcd_4bit_send_string_pos	;wreg free
  1202   0010D0                     
  1203                           ;application.c: 171:             _delay((unsigned long)((1000)*(8000000/4000.0)));
  1204   0010D0  0E0B               	movlw	11
  1205   0010D2  6E64               	movwf	(??_main+1)^0,c
  1206   0010D4  0E26               	movlw	38
  1207   0010D6  6E63               	movwf	??_main^0,c
  1208   0010D8  0E5E               	movlw	94
  1209   0010DA                     u7267:
  1210   0010DA  2EE8               	decfsz	wreg,f,c
  1211   0010DC  D7FE               	bra	u7267
  1212   0010DE  2E63               	decfsz	??_main^0,f,c
  1213   0010E0  D7FC               	bra	u7267
  1214   0010E2  2E64               	decfsz	(??_main+1)^0,f,c
  1215   0010E4  D7FA               	bra	u7267
  1216   0010E6                     
  1217                           ;application.c: 172:              lcd_4bit_send_command(&lcd_1,0X01);
  1218   0010E6  0E6D               	movlw	low _lcd_1
  1219   0010E8  6E4F               	movwf	lcd_4bit_send_command@lcd^0,c
  1220   0010EA  0E00               	movlw	high _lcd_1
  1221   0010EC  6E50               	movwf	(lcd_4bit_send_command@lcd+1)^0,c
  1222   0010EE  0E01               	movlw	1
  1223   0010F0  6E51               	movwf	lcd_4bit_send_command@command^0,c
  1224   0010F2  EC7F  F015         	call	_lcd_4bit_send_command	;wreg free
  1225   0010F6  0E6D               	movlw	low _lcd_1
  1226   0010F8  6E5B               	movwf	lcd_4bit_send_string_pos@lcd^0,c
  1227   0010FA  0E00               	movlw	high _lcd_1
  1228   0010FC  6E5C               	movwf	(lcd_4bit_send_string_pos@lcd+1)^0,c
  1229   0010FE  0E01               	movlw	1
  1230   001100  6E5D               	movwf	lcd_4bit_send_string_pos@row^0,c
  1231   001102  0E01               	movlw	1
  1232   001104  6E5E               	movwf	lcd_4bit_send_string_pos@column^0,c
  1233   001106  0E20               	movlw	low STR_5
  1234   001108  6E5F               	movwf	lcd_4bit_send_string_pos@str^0,c
  1235   00110A  0E10               	movlw	high STR_5
  1236   00110C  6E60               	movwf	(lcd_4bit_send_string_pos@str+1)^0,c
  1237   00110E  EC52  F014         	call	_lcd_4bit_send_string_pos	;wreg free
  1238   001112                     
  1239                           ;application.c: 174:              lcd_4bit_send_string_pos(&lcd_1,2,1,"set clock");
  1240   001112  0E6D               	movlw	low _lcd_1
  1241   001114  6E5B               	movwf	lcd_4bit_send_string_pos@lcd^0,c
  1242   001116  0E00               	movlw	high _lcd_1
  1243   001118  6E5C               	movwf	(lcd_4bit_send_string_pos@lcd+1)^0,c
  1244   00111A  0E02               	movlw	2
  1245   00111C  6E5D               	movwf	lcd_4bit_send_string_pos@row^0,c
  1246   00111E  0E01               	movlw	1
  1247   001120  6E5E               	movwf	lcd_4bit_send_string_pos@column^0,c
  1248   001122  0E67               	movlw	low STR_6
  1249   001124  6E5F               	movwf	lcd_4bit_send_string_pos@str^0,c
  1250   001126  0E10               	movlw	high STR_6
  1251   001128  6E60               	movwf	(lcd_4bit_send_string_pos@str+1)^0,c
  1252   00112A  EC52  F014         	call	_lcd_4bit_send_string_pos	;wreg free
  1253   00112E                     
  1254                           ;application.c: 175:                     _delay((unsigned long)((250)*(8000000/4000.0)))
      +                          ;
  1255   00112E  0E03               	movlw	3
  1256   001130  6E64               	movwf	(??_main+1)^0,c
  1257   001132  0E8A               	movlw	138
  1258   001134  6E63               	movwf	??_main^0,c
  1259   001136  0E56               	movlw	86
  1260   001138                     u7277:
  1261   001138  2EE8               	decfsz	wreg,f,c
  1262   00113A  D7FE               	bra	u7277
  1263   00113C  2E63               	decfsz	??_main^0,f,c
  1264   00113E  D7FC               	bra	u7277
  1265   001140  2E64               	decfsz	(??_main+1)^0,f,c
  1266   001142  D7FA               	bra	u7277
  1267   001144                     l8559:
  1268                           
  1269                           ;application.c: 181:         for(counter=0; counter<=50; counter++){
  1270   001144  0E00               	movlw	0
  1271   001146  6E25               	movwf	_counter^0,c
  1272   001148                     l8565:
  1273   001148  0EB0               	movlw	low _timer0_counter_obj
  1274   00114A  6E41               	movwf	Timer0_Read_Value@_timer^0,c
  1275   00114C  0E00               	movlw	high _timer0_counter_obj
  1276   00114E  6E42               	movwf	(Timer0_Read_Value@_timer+1)^0,c
  1277   001150  0E36               	movlw	low _Counter_Value
  1278   001152  6E43               	movwf	Timer0_Read_Value@_value^0,c
  1279   001154  0E00               	movlw	high _Counter_Value
  1280   001156  6E44               	movwf	(Timer0_Read_Value@_value+1)^0,c
  1281   001158  EC1E  F017         	call	_Timer0_Read_Value	;wreg free
  1282   00115C                     
  1283                           ;application.c: 183:             if(60 == Counter_Value){
  1284   00115C  0E3C               	movlw	60
  1285   00115E  1836               	xorwf	_Counter_Value^0,w,c
  1286   001160  1037               	iorwf	(_Counter_Value+1)^0,w,c
  1287   001162  A4D8               	btfss	status,2,c
  1288   001164  EFB6  F008         	goto	u7191
  1289   001168  EFB8  F008         	goto	u7190
  1290   00116C                     u7191:
  1291   00116C  EFE2  F008         	goto	l8583
  1292   001170                     u7190:
  1293   001170  0EB0               	movlw	low _timer0_counter_obj
  1294   001172  6E41               	movwf	Timer0_Write_Value@_timer^0,c
  1295   001174  0E00               	movlw	high _timer0_counter_obj
  1296   001176  6E42               	movwf	(Timer0_Write_Value@_timer+1)^0,c
  1297   001178  0E00               	movlw	0
  1298   00117A  6E44               	movwf	(Timer0_Write_Value@_value+1)^0,c
  1299   00117C  0E00               	movlw	0
  1300   00117E  6E43               	movwf	Timer0_Write_Value@_value^0,c
  1301   001180  ECC6  F017         	call	_Timer0_Write_Value	;wreg free
  1302   001184                     
  1303                           ;application.c: 186:                 Minutes ++ ;
  1304   001184  4A67               	infsnz	_Minutes^0,f,c
  1305   001186  2A68               	incf	(_Minutes+1)^0,f,c
  1306   001188                     
  1307                           ;application.c: 188:                 if(60 == Minutes){
  1308   001188  0E3C               	movlw	60
  1309   00118A  1867               	xorwf	_Minutes^0,w,c
  1310   00118C  1068               	iorwf	(_Minutes+1)^0,w,c
  1311   00118E  A4D8               	btfss	status,2,c
  1312   001190  EFCC  F008         	goto	u7201
  1313   001194  EFCE  F008         	goto	u7200
  1314   001198                     u7201:
  1315   001198  EFE2  F008         	goto	l8583
  1316   00119C                     u7200:
  1317   00119C                     
  1318                           ;application.c: 189:                     Hours++ ;
  1319   00119C  4A65               	infsnz	_Hours^0,f,c
  1320   00119E  2A66               	incf	(_Hours+1)^0,f,c
  1321   0011A0                     
  1322                           ;application.c: 190:                     Minutes = 0 ;
  1323   0011A0  0E00               	movlw	0
  1324   0011A2  6E68               	movwf	(_Minutes+1)^0,c
  1325   0011A4  0E00               	movlw	0
  1326   0011A6  6E67               	movwf	_Minutes^0,c
  1327   0011A8                     
  1328                           ;application.c: 191:                     if(24 == Hours){
  1329   0011A8  0E18               	movlw	24
  1330   0011AA  1865               	xorwf	_Hours^0,w,c
  1331   0011AC  1066               	iorwf	(_Hours+1)^0,w,c
  1332   0011AE  A4D8               	btfss	status,2,c
  1333   0011B0  EFDC  F008         	goto	u7211
  1334   0011B4  EFDE  F008         	goto	u7210
  1335   0011B8                     u7211:
  1336   0011B8  EFE2  F008         	goto	l8583
  1337   0011BC                     u7210:
  1338   0011BC                     
  1339                           ;application.c: 192:                         Hours = 0 ;
  1340   0011BC  0E00               	movlw	0
  1341   0011BE  6E66               	movwf	(_Hours+1)^0,c
  1342   0011C0  0E00               	movlw	0
  1343   0011C2  6E65               	movwf	_Hours^0,c
  1344   0011C4                     l8583:
  1345   0011C4  0EB7               	movlw	low _segment_1
  1346   0011C6  6E4B               	movwf	seven_segement_write_number@seg^0,c
  1347   0011C8  0E00               	movlw	high _segment_1
  1348   0011CA  6E4C               	movwf	(seven_segement_write_number@seg+1)^0,c
  1349   0011CC  C036  F041         	movff	_Counter_Value,___lwmod@dividend
  1350   0011D0  C037  F042         	movff	_Counter_Value+1,___lwmod@dividend+1
  1351   0011D4  0E00               	movlw	0
  1352   0011D6  6E44               	movwf	(___lwmod@divisor+1)^0,c
  1353   0011D8  0E0A               	movlw	10
  1354   0011DA  6E43               	movwf	___lwmod@divisor^0,c
  1355   0011DC  EC5E  F016         	call	___lwmod	;wreg free
  1356   0011E0  5041               	movf	?___lwmod^0,w,c
  1357   0011E2  6E4D               	movwf	seven_segement_write_number@number^0,c
  1358   0011E4  EC40  F013         	call	_seven_segement_write_number	;wreg free
  1359   0011E8  0E73               	movlw	low _seg_pin_6
  1360   0011EA  6E41               	movwf	gpio_pin_write_logic@pin_config^0,c
  1361   0011EC  0E00               	movlw	high _seg_pin_6
  1362   0011EE  6E42               	movwf	(gpio_pin_write_logic@pin_config+1)^0,c
  1363   0011F0  0E01               	movlw	1
  1364   0011F2  6E43               	movwf	gpio_pin_write_logic@logic^0,c
  1365   0011F4  EC87  F010         	call	_gpio_pin_write_logic	;wreg free
  1366   0011F8  0EA8               	movlw	low _keypad1
  1367   0011FA  6E4B               	movwf	keypad_get_value@_keypad_obj^0,c
  1368   0011FC  0E00               	movlw	high _keypad1
  1369   0011FE  6E4C               	movwf	(keypad_get_value@_keypad_obj+1)^0,c
  1370   001200  0E3E               	movlw	low _key_value
  1371   001202  6E4D               	movwf	keypad_get_value@value^0,c
  1372   001204  0E00               	movlw	high _key_value
  1373   001206  6E4E               	movwf	(keypad_get_value@value+1)^0,c
  1374   001208  ECB2  F011         	call	_keypad_get_value	;wreg free
  1375   00120C  0E73               	movlw	low _seg_pin_6
  1376   00120E  6E41               	movwf	gpio_pin_write_logic@pin_config^0,c
  1377   001210  0E00               	movlw	high _seg_pin_6
  1378   001212  6E42               	movwf	(gpio_pin_write_logic@pin_config+1)^0,c
  1379   001214  0E00               	movlw	0
  1380   001216  6E43               	movwf	gpio_pin_write_logic@logic^0,c
  1381   001218  EC87  F010         	call	_gpio_pin_write_logic	;wreg free
  1382   00121C  0EB7               	movlw	low _segment_1
  1383   00121E  6E4B               	movwf	seven_segement_write_number@seg^0,c
  1384   001220  0E00               	movlw	high _segment_1
  1385   001222  6E4C               	movwf	(seven_segement_write_number@seg+1)^0,c
  1386   001224  C036  F041         	movff	_Counter_Value,___lwdiv@dividend
  1387   001228  C037  F042         	movff	_Counter_Value+1,___lwdiv@dividend+1
  1388   00122C  0E00               	movlw	0
  1389   00122E  6E44               	movwf	(___lwdiv@divisor+1)^0,c
  1390   001230  0E0A               	movlw	10
  1391   001232  6E43               	movwf	___lwdiv@divisor^0,c
  1392   001234  ECBA  F015         	call	___lwdiv	;wreg free
  1393   001238  5041               	movf	?___lwdiv^0,w,c
  1394   00123A  6E4D               	movwf	seven_segement_write_number@number^0,c
  1395   00123C  EC40  F013         	call	_seven_segement_write_number	;wreg free
  1396   001240  0E74               	movlw	low _seg_pin_5
  1397   001242  6E41               	movwf	gpio_pin_write_logic@pin_config^0,c
  1398   001244  0E00               	movlw	high _seg_pin_5
  1399   001246  6E42               	movwf	(gpio_pin_write_logic@pin_config+1)^0,c
  1400   001248  0E01               	movlw	1
  1401   00124A  6E43               	movwf	gpio_pin_write_logic@logic^0,c
  1402   00124C  EC87  F010         	call	_gpio_pin_write_logic	;wreg free
  1403   001250                     
  1404                           ;application.c: 202:             _delay((unsigned long)((2)*(8000000/4000.0))) ;
  1405   001250  0E06               	movlw	6
  1406   001252  6E63               	movwf	??_main^0,c
  1407   001254  0E30               	movlw	48
  1408   001256                     u7287:
  1409   001256  2EE8               	decfsz	wreg,f,c
  1410   001258  D7FE               	bra	u7287
  1411   00125A  2E63               	decfsz	??_main^0,f,c
  1412   00125C  D7FC               	bra	u7287
  1413   00125E  D000               	nop2	
  1414   001260  0E74               	movlw	low _seg_pin_5
  1415   001262  6E41               	movwf	gpio_pin_write_logic@pin_config^0,c
  1416   001264  0E00               	movlw	high _seg_pin_5
  1417   001266  6E42               	movwf	(gpio_pin_write_logic@pin_config+1)^0,c
  1418   001268  0E00               	movlw	0
  1419   00126A  6E43               	movwf	gpio_pin_write_logic@logic^0,c
  1420   00126C  EC87  F010         	call	_gpio_pin_write_logic	;wreg free
  1421   001270  0EB7               	movlw	low _segment_1
  1422   001272  6E4B               	movwf	seven_segement_write_number@seg^0,c
  1423   001274  0E00               	movlw	high _segment_1
  1424   001276  6E4C               	movwf	(seven_segement_write_number@seg+1)^0,c
  1425   001278  C067  F041         	movff	_Minutes,___lwmod@dividend
  1426   00127C  C068  F042         	movff	_Minutes+1,___lwmod@dividend+1
  1427   001280  0E00               	movlw	0
  1428   001282  6E44               	movwf	(___lwmod@divisor+1)^0,c
  1429   001284  0E0A               	movlw	10
  1430   001286  6E43               	movwf	___lwmod@divisor^0,c
  1431   001288  EC5E  F016         	call	___lwmod	;wreg free
  1432   00128C  5041               	movf	?___lwmod^0,w,c
  1433   00128E  6E4D               	movwf	seven_segement_write_number@number^0,c
  1434   001290  EC40  F013         	call	_seven_segement_write_number	;wreg free
  1435   001294  0E75               	movlw	low _seg_pin_4
  1436   001296  6E41               	movwf	gpio_pin_write_logic@pin_config^0,c
  1437   001298  0E00               	movlw	high _seg_pin_4
  1438   00129A  6E42               	movwf	(gpio_pin_write_logic@pin_config+1)^0,c
  1439   00129C  0E01               	movlw	1
  1440   00129E  6E43               	movwf	gpio_pin_write_logic@logic^0,c
  1441   0012A0  EC87  F010         	call	_gpio_pin_write_logic	;wreg free
  1442   0012A4                     
  1443                           ;application.c: 207:             _delay((unsigned long)((2)*(8000000/4000.0))) ;
  1444   0012A4  0E06               	movlw	6
  1445   0012A6  6E63               	movwf	??_main^0,c
  1446   0012A8  0E30               	movlw	48
  1447   0012AA                     u7297:
  1448   0012AA  2EE8               	decfsz	wreg,f,c
  1449   0012AC  D7FE               	bra	u7297
  1450   0012AE  2E63               	decfsz	??_main^0,f,c
  1451   0012B0  D7FC               	bra	u7297
  1452   0012B2  D000               	nop2	
  1453   0012B4  0E75               	movlw	low _seg_pin_4
  1454   0012B6  6E41               	movwf	gpio_pin_write_logic@pin_config^0,c
  1455   0012B8  0E00               	movlw	high _seg_pin_4
  1456   0012BA  6E42               	movwf	(gpio_pin_write_logic@pin_config+1)^0,c
  1457   0012BC  0E00               	movlw	0
  1458   0012BE  6E43               	movwf	gpio_pin_write_logic@logic^0,c
  1459   0012C0  EC87  F010         	call	_gpio_pin_write_logic	;wreg free
  1460   0012C4  0EB7               	movlw	low _segment_1
  1461   0012C6  6E4B               	movwf	seven_segement_write_number@seg^0,c
  1462   0012C8  0E00               	movlw	high _segment_1
  1463   0012CA  6E4C               	movwf	(seven_segement_write_number@seg+1)^0,c
  1464   0012CC  C067  F041         	movff	_Minutes,___lwdiv@dividend
  1465   0012D0  C068  F042         	movff	_Minutes+1,___lwdiv@dividend+1
  1466   0012D4  0E00               	movlw	0
  1467   0012D6  6E44               	movwf	(___lwdiv@divisor+1)^0,c
  1468   0012D8  0E0A               	movlw	10
  1469   0012DA  6E43               	movwf	___lwdiv@divisor^0,c
  1470   0012DC  ECBA  F015         	call	___lwdiv	;wreg free
  1471   0012E0  5041               	movf	?___lwdiv^0,w,c
  1472   0012E2  6E4D               	movwf	seven_segement_write_number@number^0,c
  1473   0012E4  EC40  F013         	call	_seven_segement_write_number	;wreg free
  1474   0012E8  0E76               	movlw	low _seg_pin_3
  1475   0012EA  6E41               	movwf	gpio_pin_write_logic@pin_config^0,c
  1476   0012EC  0E00               	movlw	high _seg_pin_3
  1477   0012EE  6E42               	movwf	(gpio_pin_write_logic@pin_config+1)^0,c
  1478   0012F0  0E01               	movlw	1
  1479   0012F2  6E43               	movwf	gpio_pin_write_logic@logic^0,c
  1480   0012F4  EC87  F010         	call	_gpio_pin_write_logic	;wreg free
  1481   0012F8                     
  1482                           ;application.c: 211:             _delay((unsigned long)((2)*(8000000/4000.0))) ;
  1483   0012F8  0E06               	movlw	6
  1484   0012FA  6E63               	movwf	??_main^0,c
  1485   0012FC  0E30               	movlw	48
  1486   0012FE                     u7307:
  1487   0012FE  2EE8               	decfsz	wreg,f,c
  1488   001300  D7FE               	bra	u7307
  1489   001302  2E63               	decfsz	??_main^0,f,c
  1490   001304  D7FC               	bra	u7307
  1491   001306  D000               	nop2	
  1492   001308  0E76               	movlw	low _seg_pin_3
  1493   00130A  6E41               	movwf	gpio_pin_write_logic@pin_config^0,c
  1494   00130C  0E00               	movlw	high _seg_pin_3
  1495   00130E  6E42               	movwf	(gpio_pin_write_logic@pin_config+1)^0,c
  1496   001310  0E00               	movlw	0
  1497   001312  6E43               	movwf	gpio_pin_write_logic@logic^0,c
  1498   001314  EC87  F010         	call	_gpio_pin_write_logic	;wreg free
  1499   001318  0EB7               	movlw	low _segment_1
  1500   00131A  6E4B               	movwf	seven_segement_write_number@seg^0,c
  1501   00131C  0E00               	movlw	high _segment_1
  1502   00131E  6E4C               	movwf	(seven_segement_write_number@seg+1)^0,c
  1503   001320  C065  F041         	movff	_Hours,___lwmod@dividend
  1504   001324  C066  F042         	movff	_Hours+1,___lwmod@dividend+1
  1505   001328  0E00               	movlw	0
  1506   00132A  6E44               	movwf	(___lwmod@divisor+1)^0,c
  1507   00132C  0E0A               	movlw	10
  1508   00132E  6E43               	movwf	___lwmod@divisor^0,c
  1509   001330  EC5E  F016         	call	___lwmod	;wreg free
  1510   001334  5041               	movf	?___lwmod^0,w,c
  1511   001336  6E4D               	movwf	seven_segement_write_number@number^0,c
  1512   001338  EC40  F013         	call	_seven_segement_write_number	;wreg free
  1513   00133C  0E77               	movlw	low _seg_pin_2
  1514   00133E  6E41               	movwf	gpio_pin_write_logic@pin_config^0,c
  1515   001340  0E00               	movlw	high _seg_pin_2
  1516   001342  6E42               	movwf	(gpio_pin_write_logic@pin_config+1)^0,c
  1517   001344  0E01               	movlw	1
  1518   001346  6E43               	movwf	gpio_pin_write_logic@logic^0,c
  1519   001348  EC87  F010         	call	_gpio_pin_write_logic	;wreg free
  1520   00134C                     
  1521                           ;application.c: 216:             _delay((unsigned long)((2)*(8000000/4000.0))) ;
  1522   00134C  0E06               	movlw	6
  1523   00134E  6E63               	movwf	??_main^0,c
  1524   001350  0E30               	movlw	48
  1525   001352                     u7317:
  1526   001352  2EE8               	decfsz	wreg,f,c
  1527   001354  D7FE               	bra	u7317
  1528   001356  2E63               	decfsz	??_main^0,f,c
  1529   001358  D7FC               	bra	u7317
  1530   00135A  D000               	nop2	
  1531   00135C  0E77               	movlw	low _seg_pin_2
  1532   00135E  6E41               	movwf	gpio_pin_write_logic@pin_config^0,c
  1533   001360  0E00               	movlw	high _seg_pin_2
  1534   001362  6E42               	movwf	(gpio_pin_write_logic@pin_config+1)^0,c
  1535   001364  0E00               	movlw	0
  1536   001366  6E43               	movwf	gpio_pin_write_logic@logic^0,c
  1537   001368  EC87  F010         	call	_gpio_pin_write_logic	;wreg free
  1538   00136C  0EB7               	movlw	low _segment_1
  1539   00136E  6E4B               	movwf	seven_segement_write_number@seg^0,c
  1540   001370  0E00               	movlw	high _segment_1
  1541   001372  6E4C               	movwf	(seven_segement_write_number@seg+1)^0,c
  1542   001374  C065  F041         	movff	_Hours,___lwdiv@dividend
  1543   001378  C066  F042         	movff	_Hours+1,___lwdiv@dividend+1
  1544   00137C  0E00               	movlw	0
  1545   00137E  6E44               	movwf	(___lwdiv@divisor+1)^0,c
  1546   001380  0E0A               	movlw	10
  1547   001382  6E43               	movwf	___lwdiv@divisor^0,c
  1548   001384  ECBA  F015         	call	___lwdiv	;wreg free
  1549   001388  5041               	movf	?___lwdiv^0,w,c
  1550   00138A  6E4D               	movwf	seven_segement_write_number@number^0,c
  1551   00138C  EC40  F013         	call	_seven_segement_write_number	;wreg free
  1552   001390  0E78               	movlw	low _seg_pin_1
  1553   001392  6E41               	movwf	gpio_pin_write_logic@pin_config^0,c
  1554   001394  0E00               	movlw	high _seg_pin_1
  1555   001396  6E42               	movwf	(gpio_pin_write_logic@pin_config+1)^0,c
  1556   001398  0E01               	movlw	1
  1557   00139A  6E43               	movwf	gpio_pin_write_logic@logic^0,c
  1558   00139C  EC87  F010         	call	_gpio_pin_write_logic	;wreg free
  1559   0013A0                     
  1560                           ;application.c: 220:             _delay((unsigned long)((2)*(8000000/4000.0))) ;
  1561   0013A0  0E06               	movlw	6
  1562   0013A2  6E63               	movwf	??_main^0,c
  1563   0013A4  0E30               	movlw	48
  1564   0013A6                     u7327:
  1565   0013A6  2EE8               	decfsz	wreg,f,c
  1566   0013A8  D7FE               	bra	u7327
  1567   0013AA  2E63               	decfsz	??_main^0,f,c
  1568   0013AC  D7FC               	bra	u7327
  1569   0013AE  D000               	nop2	
  1570   0013B0  0E78               	movlw	low _seg_pin_1
  1571   0013B2  6E41               	movwf	gpio_pin_write_logic@pin_config^0,c
  1572   0013B4  0E00               	movlw	high _seg_pin_1
  1573   0013B6  6E42               	movwf	(gpio_pin_write_logic@pin_config+1)^0,c
  1574   0013B8  0E00               	movlw	0
  1575   0013BA  6E43               	movwf	gpio_pin_write_logic@logic^0,c
  1576   0013BC  EC87  F010         	call	_gpio_pin_write_logic	;wreg free
  1577   0013C0  0EA8               	movlw	low _keypad1
  1578   0013C2  6E4B               	movwf	keypad_read_switch@keypad^0,c
  1579   0013C4  0E00               	movlw	high _keypad1
  1580   0013C6  6E4C               	movwf	(keypad_read_switch@keypad+1)^0,c
  1581   0013C8  0E3E               	movlw	low _key_value
  1582   0013CA  6E4D               	movwf	keypad_read_switch@status^0,c
  1583   0013CC  0E00               	movlw	high _key_value
  1584   0013CE  6E4E               	movwf	(keypad_read_switch@status+1)^0,c
  1585   0013D0  EC1D  F00F         	call	_keypad_read_switch	;wreg free
  1586   0013D4                     
  1587                           ;application.c: 225:       if(key_value!=(0xff)){
  1588   0013D4  283E               	incf	_key_value^0,w,c
  1589   0013D6  B4D8               	btfsc	status,2,c
  1590   0013D8  EFF0  F009         	goto	u7221
  1591   0013DC  EFF2  F009         	goto	u7220
  1592   0013E0                     u7221:
  1593   0013E0  EF12  F00C         	goto	l8725
  1594   0013E4                     u7220:
  1595   0013E4                     
  1596                           ;application.c: 226:                if('1' == key_value){
  1597   0013E4  0E31               	movlw	49
  1598   0013E6  183E               	xorwf	_key_value^0,w,c
  1599   0013E8  A4D8               	btfss	status,2,c
  1600   0013EA  EFF9  F009         	goto	u7231
  1601   0013EE  EFFB  F009         	goto	u7230
  1602   0013F2                     u7231:
  1603   0013F2  EFB2  F00B         	goto	l8703
  1604   0013F6                     u7230:
  1605   0013F6                     
  1606                           ;application.c: 227:                       led_turn_on(&led2);
  1607   0013F6  0E79               	movlw	low _led2
  1608   0013F8  6E4B               	movwf	led_turn_on@led^0,c
  1609   0013FA  0E00               	movlw	high _led2
  1610   0013FC  6E4C               	movwf	(led_turn_on@led+1)^0,c
  1611   0013FE  ECCE  F014         	call	_led_turn_on	;wreg free
  1612   001402  0E6D               	movlw	low _lcd_1
  1613   001404  6E4F               	movwf	lcd_4bit_send_command@lcd^0,c
  1614   001406  0E00               	movlw	high _lcd_1
  1615   001408  6E50               	movwf	(lcd_4bit_send_command@lcd+1)^0,c
  1616   00140A  0E01               	movlw	1
  1617   00140C  6E51               	movwf	lcd_4bit_send_command@command^0,c
  1618   00140E  EC7F  F015         	call	_lcd_4bit_send_command	;wreg free
  1619   001412                     
  1620                           ;application.c: 229:                 _delay((unsigned long)((200)*(8000000/4000.0))) ;
  1621   001412  0E03               	movlw	3
  1622   001414  6E64               	movwf	(??_main+1)^0,c
  1623   001416  0E08               	movlw	8
  1624   001418  6E63               	movwf	??_main^0,c
  1625   00141A  0E77               	movlw	119
  1626   00141C                     u7337:
  1627   00141C  2EE8               	decfsz	wreg,f,c
  1628   00141E  D7FE               	bra	u7337
  1629   001420  2E63               	decfsz	??_main^0,f,c
  1630   001422  D7FC               	bra	u7337
  1631   001424  2E64               	decfsz	(??_main+1)^0,f,c
  1632   001426  D7FA               	bra	u7337
  1633   001428  F000               	nop	
  1634   00142A  0E6D               	movlw	low _lcd_1
  1635   00142C  6E5B               	movwf	lcd_4bit_send_string_pos@lcd^0,c
  1636   00142E  0E00               	movlw	high _lcd_1
  1637   001430  6E5C               	movwf	(lcd_4bit_send_string_pos@lcd+1)^0,c
  1638   001432  0E01               	movlw	1
  1639   001434  6E5D               	movwf	lcd_4bit_send_string_pos@row^0,c
  1640   001436  0E01               	movlw	1
  1641   001438  6E5E               	movwf	lcd_4bit_send_string_pos@column^0,c
  1642   00143A  0E53               	movlw	low STR_7
  1643   00143C  6E5F               	movwf	lcd_4bit_send_string_pos@str^0,c
  1644   00143E  0E10               	movlw	high STR_7
  1645   001440  6E60               	movwf	(lcd_4bit_send_string_pos@str+1)^0,c
  1646   001442  EC52  F014         	call	_lcd_4bit_send_string_pos	;wreg free
  1647   001446  0EA8               	movlw	low _keypad1
  1648   001448  6E4B               	movwf	keypad_get_value_blocking@_keypad_obj^0,c
  1649   00144A  0E00               	movlw	high _keypad1
  1650   00144C  6E4C               	movwf	(keypad_get_value_blocking@_keypad_obj+1)^0,c
  1651   00144E  0E3D               	movlw	low _value11
  1652   001450  6E4D               	movwf	keypad_get_value_blocking@value^0,c
  1653   001452  0E00               	movlw	high _value11
  1654   001454  6E4E               	movwf	(keypad_get_value_blocking@value+1)^0,c
  1655   001456  EC12  F00E         	call	_keypad_get_value_blocking	;wreg free
  1656   00145A  0E6D               	movlw	low _lcd_1
  1657   00145C  6E5B               	movwf	lcd_4bit_send_char_data_pos@lcd^0,c
  1658   00145E  0E00               	movlw	high _lcd_1
  1659   001460  6E5C               	movwf	(lcd_4bit_send_char_data_pos@lcd+1)^0,c
  1660   001462  0E01               	movlw	1
  1661   001464  6E5D               	movwf	lcd_4bit_send_char_data_pos@row^0,c
  1662   001466  0E09               	movlw	9
  1663   001468  6E5E               	movwf	lcd_4bit_send_char_data_pos@column^0,c
  1664   00146A  C03D  F05F         	movff	_value11,lcd_4bit_send_char_data_pos@data
  1665   00146E  EC49  F017         	call	_lcd_4bit_send_char_data_pos	;wreg free
  1666   001472  0EA8               	movlw	low _keypad1
  1667   001474  6E4B               	movwf	keypad_get_value_blocking@_keypad_obj^0,c
  1668   001476  0E00               	movlw	high _keypad1
  1669   001478  6E4C               	movwf	(keypad_get_value_blocking@_keypad_obj+1)^0,c
  1670   00147A  0E3C               	movlw	low _value12
  1671   00147C  6E4D               	movwf	keypad_get_value_blocking@value^0,c
  1672   00147E  0E00               	movlw	high _value12
  1673   001480  6E4E               	movwf	(keypad_get_value_blocking@value+1)^0,c
  1674   001482  EC12  F00E         	call	_keypad_get_value_blocking	;wreg free
  1675   001486  0E6D               	movlw	low _lcd_1
  1676   001488  6E5B               	movwf	lcd_4bit_send_char_data_pos@lcd^0,c
  1677   00148A  0E00               	movlw	high _lcd_1
  1678   00148C  6E5C               	movwf	(lcd_4bit_send_char_data_pos@lcd+1)^0,c
  1679   00148E  0E01               	movlw	1
  1680   001490  6E5D               	movwf	lcd_4bit_send_char_data_pos@row^0,c
  1681   001492  0E0A               	movlw	10
  1682   001494  6E5E               	movwf	lcd_4bit_send_char_data_pos@column^0,c
  1683   001496  C03C  F05F         	movff	_value12,lcd_4bit_send_char_data_pos@data
  1684   00149A  EC49  F017         	call	_lcd_4bit_send_char_data_pos	;wreg free
  1685   00149E                     
  1686                           ;application.c: 236:                 _delay((unsigned long)((500)*(8000000/4000.0))) ;
  1687   00149E  0E06               	movlw	6
  1688   0014A0  6E64               	movwf	(??_main+1)^0,c
  1689   0014A2  0E13               	movlw	19
  1690   0014A4  6E63               	movwf	??_main^0,c
  1691   0014A6  0EAE               	movlw	174
  1692   0014A8                     u7347:
  1693   0014A8  2EE8               	decfsz	wreg,f,c
  1694   0014AA  D7FE               	bra	u7347
  1695   0014AC  2E63               	decfsz	??_main^0,f,c
  1696   0014AE  D7FC               	bra	u7347
  1697   0014B0  2E64               	decfsz	(??_main+1)^0,f,c
  1698   0014B2  D7FA               	bra	u7347
  1699   0014B4                     
  1700                           ;application.c: 238:                 ret = lcd_4bit_send_command(&lcd_1 , 0X01) ;
  1701   0014B4  0E6D               	movlw	low _lcd_1
  1702   0014B6  6E4F               	movwf	lcd_4bit_send_command@lcd^0,c
  1703   0014B8  0E00               	movlw	high _lcd_1
  1704   0014BA  6E50               	movwf	(lcd_4bit_send_command@lcd+1)^0,c
  1705   0014BC  0E01               	movlw	1
  1706   0014BE  6E51               	movwf	lcd_4bit_send_command@command^0,c
  1707   0014C0  EC7F  F015         	call	_lcd_4bit_send_command	;wreg free
  1708   0014C4  0100               	movlb	0	; () banked
  1709   0014C6  6FDE               	movwf	main@ret& (0+255),b
  1710                           
  1711                           ;application.c: 240:                 ret = lcd_4bit_send_string_pos(&lcd_1 ,1 ,1 , "Minu
      +                          tes: ") ;
  1712   0014C8  0E6D               	movlw	low _lcd_1
  1713   0014CA  6E5B               	movwf	lcd_4bit_send_string_pos@lcd^0,c
  1714   0014CC  0E00               	movlw	high _lcd_1
  1715   0014CE  6E5C               	movwf	(lcd_4bit_send_string_pos@lcd+1)^0,c
  1716   0014D0  0E01               	movlw	1
  1717   0014D2  6E5D               	movwf	lcd_4bit_send_string_pos@row^0,c
  1718   0014D4  0E01               	movlw	1
  1719   0014D6  6E5E               	movwf	lcd_4bit_send_string_pos@column^0,c
  1720   0014D8  0E5D               	movlw	low STR_8
  1721   0014DA  6E5F               	movwf	lcd_4bit_send_string_pos@str^0,c
  1722   0014DC  0E10               	movlw	high STR_8
  1723   0014DE  6E60               	movwf	(lcd_4bit_send_string_pos@str+1)^0,c
  1724   0014E0  EC52  F014         	call	_lcd_4bit_send_string_pos	;wreg free
  1725   0014E4  0100               	movlb	0	; () banked
  1726   0014E6  6FDE               	movwf	main@ret& (0+255),b
  1727                           
  1728                           ;application.c: 241:                 ret = keypad_get_value_blocking(&keypad1 , &value21
      +                          ) ;
  1729   0014E8  0EA8               	movlw	low _keypad1
  1730   0014EA  6E4B               	movwf	keypad_get_value_blocking@_keypad_obj^0,c
  1731   0014EC  0E00               	movlw	high _keypad1
  1732   0014EE  6E4C               	movwf	(keypad_get_value_blocking@_keypad_obj+1)^0,c
  1733   0014F0  0E3B               	movlw	low _value21
  1734   0014F2  6E4D               	movwf	keypad_get_value_blocking@value^0,c
  1735   0014F4  0E00               	movlw	high _value21
  1736   0014F6  6E4E               	movwf	(keypad_get_value_blocking@value+1)^0,c
  1737   0014F8  EC12  F00E         	call	_keypad_get_value_blocking	;wreg free
  1738   0014FC  0100               	movlb	0	; () banked
  1739   0014FE  6FDE               	movwf	main@ret& (0+255),b
  1740   001500                     
  1741                           ; BSR set to: 0
  1742   001500  0E6D               	movlw	low _lcd_1
  1743   001502  6E5B               	movwf	lcd_4bit_send_char_data_pos@lcd^0,c
  1744   001504  0E00               	movlw	high _lcd_1
  1745   001506  6E5C               	movwf	(lcd_4bit_send_char_data_pos@lcd+1)^0,c
  1746   001508  0E01               	movlw	1
  1747   00150A  6E5D               	movwf	lcd_4bit_send_char_data_pos@row^0,c
  1748   00150C  0E09               	movlw	9
  1749   00150E  6E5E               	movwf	lcd_4bit_send_char_data_pos@column^0,c
  1750   001510  C03B  F05F         	movff	_value21,lcd_4bit_send_char_data_pos@data
  1751   001514  EC49  F017         	call	_lcd_4bit_send_char_data_pos	;wreg free
  1752   001518                     
  1753                           ;application.c: 244:                 ret = keypad_get_value_blocking(&keypad1 , &value22
      +                          ) ;
  1754   001518  0EA8               	movlw	low _keypad1
  1755   00151A  6E4B               	movwf	keypad_get_value_blocking@_keypad_obj^0,c
  1756   00151C  0E00               	movlw	high _keypad1
  1757   00151E  6E4C               	movwf	(keypad_get_value_blocking@_keypad_obj+1)^0,c
  1758   001520  0E3A               	movlw	low _value22
  1759   001522  6E4D               	movwf	keypad_get_value_blocking@value^0,c
  1760   001524  0E00               	movlw	high _value22
  1761   001526  6E4E               	movwf	(keypad_get_value_blocking@value+1)^0,c
  1762   001528  EC12  F00E         	call	_keypad_get_value_blocking	;wreg free
  1763   00152C  0100               	movlb	0	; () banked
  1764   00152E  6FDE               	movwf	main@ret& (0+255),b
  1765                           
  1766                           ;application.c: 245:                 ret =lcd_4bit_send_char_data_pos(&lcd_1 ,1 ,10,valu
      +                          e22) ;
  1767   001530  0E6D               	movlw	low _lcd_1
  1768   001532  6E5B               	movwf	lcd_4bit_send_char_data_pos@lcd^0,c
  1769   001534  0E00               	movlw	high _lcd_1
  1770   001536  6E5C               	movwf	(lcd_4bit_send_char_data_pos@lcd+1)^0,c
  1771   001538  0E01               	movlw	1
  1772   00153A  6E5D               	movwf	lcd_4bit_send_char_data_pos@row^0,c
  1773   00153C  0E0A               	movlw	10
  1774   00153E  6E5E               	movwf	lcd_4bit_send_char_data_pos@column^0,c
  1775   001540  C03A  F05F         	movff	_value22,lcd_4bit_send_char_data_pos@data
  1776   001544  EC49  F017         	call	_lcd_4bit_send_char_data_pos	;wreg free
  1777   001548  0100               	movlb	0	; () banked
  1778   00154A  6FDE               	movwf	main@ret& (0+255),b
  1779   00154C                     
  1780                           ; BSR set to: 0
  1781                           ;application.c: 246:                 _delay((unsigned long)((500)*(8000000/4000.0))) ;
  1782   00154C  0E06               	movlw	6
  1783   00154E  6E64               	movwf	(??_main+1)^0,c
  1784   001550  0E13               	movlw	19
  1785   001552  6E63               	movwf	??_main^0,c
  1786   001554  0EAE               	movlw	174
  1787   001556                     u7357:
  1788   001556  2EE8               	decfsz	wreg,f,c
  1789   001558  D7FE               	bra	u7357
  1790   00155A  2E63               	decfsz	??_main^0,f,c
  1791   00155C  D7FC               	bra	u7357
  1792   00155E  2E64               	decfsz	(??_main+1)^0,f,c
  1793   001560  D7FA               	bra	u7357
  1794   001562  0E6D               	movlw	low _lcd_1
  1795   001564  6E4F               	movwf	lcd_4bit_send_command@lcd^0,c
  1796   001566  0E00               	movlw	high _lcd_1
  1797   001568  6E50               	movwf	(lcd_4bit_send_command@lcd+1)^0,c
  1798   00156A  0E01               	movlw	1
  1799   00156C  6E51               	movwf	lcd_4bit_send_command@command^0,c
  1800   00156E  EC7F  F015         	call	_lcd_4bit_send_command	;wreg free
  1801   001572  0E6D               	movlw	low _lcd_1
  1802   001574  6E5B               	movwf	lcd_4bit_send_string_pos@lcd^0,c
  1803   001576  0E00               	movlw	high _lcd_1
  1804   001578  6E5C               	movwf	(lcd_4bit_send_string_pos@lcd+1)^0,c
  1805   00157A  0E01               	movlw	1
  1806   00157C  6E5D               	movwf	lcd_4bit_send_string_pos@row^0,c
  1807   00157E  0E01               	movlw	1
  1808   001580  6E5E               	movwf	lcd_4bit_send_string_pos@column^0,c
  1809   001582  0E71               	movlw	low STR_9
  1810   001584  6E5F               	movwf	lcd_4bit_send_string_pos@str^0,c
  1811   001586  0E10               	movlw	high STR_9
  1812   001588  6E60               	movwf	(lcd_4bit_send_string_pos@str+1)^0,c
  1813   00158A  EC52  F014         	call	_lcd_4bit_send_string_pos	;wreg free
  1814   00158E  0EA8               	movlw	low _keypad1
  1815   001590  6E4B               	movwf	keypad_get_value_blocking@_keypad_obj^0,c
  1816   001592  0E00               	movlw	high _keypad1
  1817   001594  6E4C               	movwf	(keypad_get_value_blocking@_keypad_obj+1)^0,c
  1818   001596  0E39               	movlw	low _value31
  1819   001598  6E4D               	movwf	keypad_get_value_blocking@value^0,c
  1820   00159A  0E00               	movlw	high _value31
  1821   00159C  6E4E               	movwf	(keypad_get_value_blocking@value+1)^0,c
  1822   00159E  EC12  F00E         	call	_keypad_get_value_blocking	;wreg free
  1823   0015A2  0E6D               	movlw	low _lcd_1
  1824   0015A4  6E5B               	movwf	lcd_4bit_send_char_data_pos@lcd^0,c
  1825   0015A6  0E00               	movlw	high _lcd_1
  1826   0015A8  6E5C               	movwf	(lcd_4bit_send_char_data_pos@lcd+1)^0,c
  1827   0015AA  0E01               	movlw	1
  1828   0015AC  6E5D               	movwf	lcd_4bit_send_char_data_pos@row^0,c
  1829   0015AE  0E08               	movlw	8
  1830   0015B0  6E5E               	movwf	lcd_4bit_send_char_data_pos@column^0,c
  1831   0015B2  C039  F05F         	movff	_value31,lcd_4bit_send_char_data_pos@data
  1832   0015B6  EC49  F017         	call	_lcd_4bit_send_char_data_pos	;wreg free
  1833   0015BA  0EA8               	movlw	low _keypad1
  1834   0015BC  6E4B               	movwf	keypad_get_value_blocking@_keypad_obj^0,c
  1835   0015BE  0E00               	movlw	high _keypad1
  1836   0015C0  6E4C               	movwf	(keypad_get_value_blocking@_keypad_obj+1)^0,c
  1837   0015C2  0E38               	movlw	low _value32
  1838   0015C4  6E4D               	movwf	keypad_get_value_blocking@value^0,c
  1839   0015C6  0E00               	movlw	high _value32
  1840   0015C8  6E4E               	movwf	(keypad_get_value_blocking@value+1)^0,c
  1841   0015CA  EC12  F00E         	call	_keypad_get_value_blocking	;wreg free
  1842   0015CE  0E6D               	movlw	low _lcd_1
  1843   0015D0  6E5B               	movwf	lcd_4bit_send_char_data_pos@lcd^0,c
  1844   0015D2  0E00               	movlw	high _lcd_1
  1845   0015D4  6E5C               	movwf	(lcd_4bit_send_char_data_pos@lcd+1)^0,c
  1846   0015D6  0E01               	movlw	1
  1847   0015D8  6E5D               	movwf	lcd_4bit_send_char_data_pos@row^0,c
  1848   0015DA  0E09               	movlw	9
  1849   0015DC  6E5E               	movwf	lcd_4bit_send_char_data_pos@column^0,c
  1850   0015DE  C038  F05F         	movff	_value32,lcd_4bit_send_char_data_pos@data
  1851   0015E2  EC49  F017         	call	_lcd_4bit_send_char_data_pos	;wreg free
  1852   0015E6                     
  1853                           ;application.c: 255:                 _delay((unsigned long)((500)*(8000000/4000.0))) ;
  1854   0015E6  0E06               	movlw	6
  1855   0015E8  6E64               	movwf	(??_main+1)^0,c
  1856   0015EA  0E13               	movlw	19
  1857   0015EC  6E63               	movwf	??_main^0,c
  1858   0015EE  0EAE               	movlw	174
  1859   0015F0                     u7367:
  1860   0015F0  2EE8               	decfsz	wreg,f,c
  1861   0015F2  D7FE               	bra	u7367
  1862   0015F4  2E63               	decfsz	??_main^0,f,c
  1863   0015F6  D7FC               	bra	u7367
  1864   0015F8  2E64               	decfsz	(??_main+1)^0,f,c
  1865   0015FA  D7FA               	bra	u7367
  1866   0015FC                     
  1867                           ;application.c: 257:                 Seconds = (value11 -'0')*10 + (value12 - '0') ;
  1868   0015FC  503D               	movf	_value11^0,w,c
  1869   0015FE  0D0A               	mullw	10
  1870   001600  CFF3 F063          	movff	prodl,??_main
  1871   001604  CFF4 F064          	movff	prodh,??_main+1
  1872   001608  503C               	movf	_value12^0,w,c
  1873   00160A  2663               	addwf	??_main^0,f,c
  1874   00160C  0E00               	movlw	0
  1875   00160E  2264               	addwfc	(??_main+1)^0,f,c
  1876   001610  0EF0               	movlw	240
  1877   001612  2463               	addwf	??_main^0,w,c
  1878   001614  6E01               	movwf	_Seconds^0,c
  1879   001616  0EFD               	movlw	253
  1880   001618  2064               	addwfc	(??_main+1)^0,w,c
  1881   00161A  6E02               	movwf	(_Seconds+1)^0,c
  1882   00161C                     
  1883                           ;application.c: 258:                 int mul_seconds = Seconds/60 ;
  1884   00161C  C001  F041         	movff	_Seconds,___lwdiv@dividend
  1885   001620  C002  F042         	movff	_Seconds+1,___lwdiv@dividend+1
  1886   001624  0E00               	movlw	0
  1887   001626  6E44               	movwf	(___lwdiv@divisor+1)^0,c
  1888   001628  0E3C               	movlw	60
  1889   00162A  6E43               	movwf	___lwdiv@divisor^0,c
  1890   00162C  ECBA  F015         	call	___lwdiv	;wreg free
  1891   001630  C041  F0DA         	movff	?___lwdiv,main@mul_seconds
  1892   001634  C042  F0DB         	movff	?___lwdiv+1,main@mul_seconds+1
  1893   001638                     
  1894                           ;application.c: 259:                 Seconds %= 60 ;
  1895   001638  C001  F041         	movff	_Seconds,___lwmod@dividend
  1896   00163C  C002  F042         	movff	_Seconds+1,___lwmod@dividend+1
  1897   001640  0E00               	movlw	0
  1898   001642  6E44               	movwf	(___lwmod@divisor+1)^0,c
  1899   001644  0E3C               	movlw	60
  1900   001646  6E43               	movwf	___lwmod@divisor^0,c
  1901   001648  EC5E  F016         	call	___lwmod	;wreg free
  1902   00164C  C041  F001         	movff	?___lwmod,_Seconds
  1903   001650  C042  F002         	movff	?___lwmod+1,_Seconds+1
  1904   001654  0EB0               	movlw	low _timer0_counter_obj
  1905   001656  6E41               	movwf	Timer0_Write_Value@_timer^0,c
  1906   001658  0E00               	movlw	high _timer0_counter_obj
  1907   00165A  6E42               	movwf	(Timer0_Write_Value@_timer+1)^0,c
  1908   00165C  C001  F043         	movff	_Seconds,Timer0_Write_Value@_value
  1909   001660  C002  F044         	movff	_Seconds+1,Timer0_Write_Value@_value+1
  1910   001664  ECC6  F017         	call	_Timer0_Write_Value	;wreg free
  1911   001668                     
  1912                           ;application.c: 261:                 Minutes = (value21 -'0')*10 + (value22 - '0') ;
  1913   001668  503B               	movf	_value21^0,w,c
  1914   00166A  0D0A               	mullw	10
  1915   00166C  CFF3 F063          	movff	prodl,??_main
  1916   001670  CFF4 F064          	movff	prodh,??_main+1
  1917   001674  503A               	movf	_value22^0,w,c
  1918   001676  2663               	addwf	??_main^0,f,c
  1919   001678  0E00               	movlw	0
  1920   00167A  2264               	addwfc	(??_main+1)^0,f,c
  1921   00167C  0EF0               	movlw	240
  1922   00167E  2463               	addwf	??_main^0,w,c
  1923   001680  6E67               	movwf	_Minutes^0,c
  1924   001682  0EFD               	movlw	253
  1925   001684  2064               	addwfc	(??_main+1)^0,w,c
  1926   001686  6E68               	movwf	(_Minutes+1)^0,c
  1927   001688                     
  1928                           ;application.c: 262:                 int mul_minutes = Minutes/60 ;
  1929   001688  C067  F041         	movff	_Minutes,___lwdiv@dividend
  1930   00168C  C068  F042         	movff	_Minutes+1,___lwdiv@dividend+1
  1931   001690  0E00               	movlw	0
  1932   001692  6E44               	movwf	(___lwdiv@divisor+1)^0,c
  1933   001694  0E3C               	movlw	60
  1934   001696  6E43               	movwf	___lwdiv@divisor^0,c
  1935   001698  ECBA  F015         	call	___lwdiv	;wreg free
  1936   00169C  C041  F0DC         	movff	?___lwdiv,main@mul_minutes
  1937   0016A0  C042  F0DD         	movff	?___lwdiv+1,main@mul_minutes+1
  1938   0016A4                     
  1939                           ;application.c: 263:                 Minutes = Minutes%60 +mul_seconds ;
  1940   0016A4  C067  F041         	movff	_Minutes,___lwmod@dividend
  1941   0016A8  C068  F042         	movff	_Minutes+1,___lwmod@dividend+1
  1942   0016AC  0E00               	movlw	0
  1943   0016AE  6E44               	movwf	(___lwmod@divisor+1)^0,c
  1944   0016B0  0E3C               	movlw	60
  1945   0016B2  6E43               	movwf	___lwmod@divisor^0,c
  1946   0016B4  EC5E  F016         	call	___lwmod	;wreg free
  1947   0016B8  0100               	movlb	0	; () banked
  1948   0016BA  51DA               	movf	main@mul_seconds& (0+255),w,b
  1949   0016BC  2441               	addwf	?___lwmod^0,w,c
  1950   0016BE  6E67               	movwf	_Minutes^0,c
  1951   0016C0  51DB               	movf	(main@mul_seconds+1)& (0+255),w,b
  1952   0016C2  2042               	addwfc	(?___lwmod+1)^0,w,c
  1953   0016C4  6E68               	movwf	(_Minutes+1)^0,c
  1954   0016C6                     
  1955                           ; BSR set to: 0
  1956                           ;application.c: 264:                 Hours = (value31 -'0')*10 + (value32 - '0') ;
  1957   0016C6  5039               	movf	_value31^0,w,c
  1958   0016C8  0D0A               	mullw	10
  1959   0016CA  CFF3 F063          	movff	prodl,??_main
  1960   0016CE  CFF4 F064          	movff	prodh,??_main+1
  1961   0016D2  5038               	movf	_value32^0,w,c
  1962   0016D4  2663               	addwf	??_main^0,f,c
  1963   0016D6  0E00               	movlw	0
  1964   0016D8  2264               	addwfc	(??_main+1)^0,f,c
  1965   0016DA  0EF0               	movlw	240
  1966   0016DC  2463               	addwf	??_main^0,w,c
  1967   0016DE  6E65               	movwf	_Hours^0,c
  1968   0016E0  0EFD               	movlw	253
  1969   0016E2  2064               	addwfc	(??_main+1)^0,w,c
  1970   0016E4  6E66               	movwf	(_Hours+1)^0,c
  1971   0016E6                     
  1972                           ; BSR set to: 0
  1973                           ;application.c: 265:                 Hours = Hours%24 +mul_minutes ;
  1974   0016E6  C065  F041         	movff	_Hours,___lwmod@dividend
  1975   0016EA  C066  F042         	movff	_Hours+1,___lwmod@dividend+1
  1976   0016EE  0E00               	movlw	0
  1977   0016F0  6E44               	movwf	(___lwmod@divisor+1)^0,c
  1978   0016F2  0E18               	movlw	24
  1979   0016F4  6E43               	movwf	___lwmod@divisor^0,c
  1980   0016F6  EC5E  F016         	call	___lwmod	;wreg free
  1981   0016FA  0100               	movlb	0	; () banked
  1982   0016FC  51DC               	movf	main@mul_minutes& (0+255),w,b
  1983   0016FE  2441               	addwf	?___lwmod^0,w,c
  1984   001700  6E65               	movwf	_Hours^0,c
  1985   001702  51DD               	movf	(main@mul_minutes+1)& (0+255),w,b
  1986   001704  2042               	addwfc	(?___lwmod+1)^0,w,c
  1987   001706  6E66               	movwf	(_Hours+1)^0,c
  1988   001708                     
  1989                           ; BSR set to: 0
  1990                           ;application.c: 266:                                        led_turn_off(&led2);
  1991   001708  0E79               	movlw	low _led2
  1992   00170A  6E4B               	movwf	led_turn_off@led^0,c
  1993   00170C  0E00               	movlw	high _led2
  1994   00170E  6E4C               	movwf	(led_turn_off@led+1)^0,c
  1995   001710  EC09  F015         	call	_led_turn_off	;wreg free
  1996   001714  0E6D               	movlw	low _lcd_1
  1997   001716  6E4F               	movwf	lcd_4bit_send_command@lcd^0,c
  1998   001718  0E00               	movlw	high _lcd_1
  1999   00171A  6E50               	movwf	(lcd_4bit_send_command@lcd+1)^0,c
  2000   00171C  0E01               	movlw	1
  2001   00171E  6E51               	movwf	lcd_4bit_send_command@command^0,c
  2002   001720  EC7F  F015         	call	_lcd_4bit_send_command	;wreg free
  2003   001724  0E6D               	movlw	low _lcd_1
  2004   001726  6E5B               	movwf	lcd_4bit_send_string_pos@lcd^0,c
  2005   001728  0E00               	movlw	high _lcd_1
  2006   00172A  6E5C               	movwf	(lcd_4bit_send_string_pos@lcd+1)^0,c
  2007   00172C  0E01               	movlw	1
  2008   00172E  6E5D               	movwf	lcd_4bit_send_string_pos@row^0,c
  2009   001730  0E01               	movlw	1
  2010   001732  6E5E               	movwf	lcd_4bit_send_string_pos@column^0,c
  2011   001734  0E20               	movlw	low STR_5
  2012   001736  6E5F               	movwf	lcd_4bit_send_string_pos@str^0,c
  2013   001738  0E10               	movlw	high STR_5
  2014   00173A  6E60               	movwf	(lcd_4bit_send_string_pos@str+1)^0,c
  2015   00173C  EC52  F014         	call	_lcd_4bit_send_string_pos	;wreg free
  2016   001740                     
  2017                           ;application.c: 270:                   lcd_4bit_send_string_pos(&lcd_1,2,1,"set clock");
  2018   001740  0E6D               	movlw	low _lcd_1
  2019   001742  6E5B               	movwf	lcd_4bit_send_string_pos@lcd^0,c
  2020   001744  0E00               	movlw	high _lcd_1
  2021   001746  6E5C               	movwf	(lcd_4bit_send_string_pos@lcd+1)^0,c
  2022   001748  0E02               	movlw	2
  2023   00174A  6E5D               	movwf	lcd_4bit_send_string_pos@row^0,c
  2024   00174C  0E01               	movlw	1
  2025   00174E  6E5E               	movwf	lcd_4bit_send_string_pos@column^0,c
  2026   001750  0E67               	movlw	low STR_6
  2027   001752  6E5F               	movwf	lcd_4bit_send_string_pos@str^0,c
  2028   001754  0E10               	movlw	high STR_6
  2029   001756  6E60               	movwf	(lcd_4bit_send_string_pos@str+1)^0,c
  2030   001758  EC52  F014         	call	_lcd_4bit_send_string_pos	;wreg free
  2031   00175C                     
  2032                           ;application.c: 271:                 key_value = '#' ;
  2033   00175C  0E23               	movlw	35
  2034   00175E  6E3E               	movwf	_key_value^0,c
  2035                           
  2036                           ;application.c: 274:             }
  2037   001760  EF12  F00C         	goto	l8725
  2038   001764                     l8703:
  2039                           
  2040                           ;application.c: 278:          key_value--;
  2041   001764  063E               	decf	_key_value^0,f,c
  2042   001766  0E6D               	movlw	low _lcd_1
  2043   001768  6E4F               	movwf	lcd_4bit_send_command@lcd^0,c
  2044   00176A  0E00               	movlw	high _lcd_1
  2045   00176C  6E50               	movwf	(lcd_4bit_send_command@lcd+1)^0,c
  2046   00176E  0E01               	movlw	1
  2047   001770  6E51               	movwf	lcd_4bit_send_command@command^0,c
  2048   001772  EC7F  F015         	call	_lcd_4bit_send_command	;wreg free
  2049   001776                     
  2050                           ;application.c: 280:                 _delay((unsigned long)((50)*(8000000/4000.0)));
  2051   001776  0E82               	movlw	130
  2052   001778  6E63               	movwf	??_main^0,c
  2053   00177A  0EDE               	movlw	222
  2054   00177C                     u7377:
  2055   00177C  2EE8               	decfsz	wreg,f,c
  2056   00177E  D7FE               	bra	u7377
  2057   001780  2E63               	decfsz	??_main^0,f,c
  2058   001782  D7FC               	bra	u7377
  2059   001784  0E6D               	movlw	low _lcd_1
  2060   001786  6E5B               	movwf	lcd_4bit_send_string_pos@lcd^0,c
  2061   001788  0E00               	movlw	high _lcd_1
  2062   00178A  6E5C               	movwf	(lcd_4bit_send_string_pos@lcd+1)^0,c
  2063   00178C  0E01               	movlw	1
  2064   00178E  6E5D               	movwf	lcd_4bit_send_string_pos@row^0,c
  2065   001790  0E01               	movlw	1
  2066   001792  6E5E               	movwf	lcd_4bit_send_string_pos@column^0,c
  2067   001794  0E11               	movlw	low STR_12
  2068   001796  6E5F               	movwf	lcd_4bit_send_string_pos@str^0,c
  2069   001798  0E10               	movlw	high STR_12
  2070   00179A  6E60               	movwf	(lcd_4bit_send_string_pos@str+1)^0,c
  2071   00179C  EC52  F014         	call	_lcd_4bit_send_string_pos	;wreg free
  2072   0017A0                     
  2073                           ;application.c: 282:                        led_turn_on(&led1);
  2074   0017A0  0E3F               	movlw	low _led1
  2075   0017A2  6E4B               	movwf	led_turn_on@led^0,c
  2076   0017A4  0E00               	movlw	high _led1
  2077   0017A6  6E4C               	movwf	(led_turn_on@led+1)^0,c
  2078   0017A8  ECCE  F014         	call	_led_turn_on	;wreg free
  2079   0017AC                     
  2080                           ;application.c: 283:                         _delay((unsigned long)((500)*(8000000/4000.
      +                          0)));
  2081   0017AC  0E06               	movlw	6
  2082   0017AE  6E64               	movwf	(??_main+1)^0,c
  2083   0017B0  0E13               	movlw	19
  2084   0017B2  6E63               	movwf	??_main^0,c
  2085   0017B4  0EAE               	movlw	174
  2086   0017B6                     u7387:
  2087   0017B6  2EE8               	decfsz	wreg,f,c
  2088   0017B8  D7FE               	bra	u7387
  2089   0017BA  2E63               	decfsz	??_main^0,f,c
  2090   0017BC  D7FC               	bra	u7387
  2091   0017BE  2E64               	decfsz	(??_main+1)^0,f,c
  2092   0017C0  D7FA               	bra	u7387
  2093   0017C2                     
  2094                           ;application.c: 284:                          led_turn_off(&led1);
  2095   0017C2  0E3F               	movlw	low _led1
  2096   0017C4  6E4B               	movwf	led_turn_off@led^0,c
  2097   0017C6  0E00               	movlw	high _led1
  2098   0017C8  6E4C               	movwf	(led_turn_off@led+1)^0,c
  2099   0017CA  EC09  F015         	call	_led_turn_off	;wreg free
  2100   0017CE  0E6D               	movlw	low _lcd_1
  2101   0017D0  6E4F               	movwf	lcd_4bit_send_command@lcd^0,c
  2102   0017D2  0E00               	movlw	high _lcd_1
  2103   0017D4  6E50               	movwf	(lcd_4bit_send_command@lcd+1)^0,c
  2104   0017D6  0E01               	movlw	1
  2105   0017D8  6E51               	movwf	lcd_4bit_send_command@command^0,c
  2106   0017DA  EC7F  F015         	call	_lcd_4bit_send_command	;wreg free
  2107   0017DE                     
  2108                           ;application.c: 286:                 _delay((unsigned long)((50)*(8000000/4000.0)));
  2109   0017DE  0E82               	movlw	130
  2110   0017E0  6E63               	movwf	??_main^0,c
  2111   0017E2  0EDE               	movlw	222
  2112   0017E4                     u7397:
  2113   0017E4  2EE8               	decfsz	wreg,f,c
  2114   0017E6  D7FE               	bra	u7397
  2115   0017E8  2E63               	decfsz	??_main^0,f,c
  2116   0017EA  D7FC               	bra	u7397
  2117   0017EC                     
  2118                           ;application.c: 287:              lcd_4bit_send_string_pos(&lcd_1,1,1,"press 1 to");
  2119   0017EC  0E6D               	movlw	low _lcd_1
  2120   0017EE  6E5B               	movwf	lcd_4bit_send_string_pos@lcd^0,c
  2121   0017F0  0E00               	movlw	high _lcd_1
  2122   0017F2  6E5C               	movwf	(lcd_4bit_send_string_pos@lcd+1)^0,c
  2123   0017F4  0E01               	movlw	1
  2124   0017F6  6E5D               	movwf	lcd_4bit_send_string_pos@row^0,c
  2125   0017F8  0E01               	movlw	1
  2126   0017FA  6E5E               	movwf	lcd_4bit_send_string_pos@column^0,c
  2127   0017FC  0E48               	movlw	low STR_13
  2128   0017FE  6E5F               	movwf	lcd_4bit_send_string_pos@str^0,c
  2129   001800  0E10               	movlw	high STR_13
  2130   001802  6E60               	movwf	(lcd_4bit_send_string_pos@str+1)^0,c
  2131   001804  EC52  F014         	call	_lcd_4bit_send_string_pos	;wreg free
  2132   001808                     
  2133                           ;application.c: 288:              lcd_4bit_send_string_pos(&lcd_1,2,1,"set clock");
  2134   001808  0E6D               	movlw	low _lcd_1
  2135   00180A  6E5B               	movwf	lcd_4bit_send_string_pos@lcd^0,c
  2136   00180C  0E00               	movlw	high _lcd_1
  2137   00180E  6E5C               	movwf	(lcd_4bit_send_string_pos@lcd+1)^0,c
  2138   001810  0E02               	movlw	2
  2139   001812  6E5D               	movwf	lcd_4bit_send_string_pos@row^0,c
  2140   001814  0E01               	movlw	1
  2141   001816  6E5E               	movwf	lcd_4bit_send_string_pos@column^0,c
  2142   001818  0E67               	movlw	low STR_6
  2143   00181A  6E5F               	movwf	lcd_4bit_send_string_pos@str^0,c
  2144   00181C  0E10               	movlw	high STR_6
  2145   00181E  6E60               	movwf	(lcd_4bit_send_string_pos@str+1)^0,c
  2146   001820  EC52  F014         	call	_lcd_4bit_send_string_pos	;wreg free
  2147   001824                     l8725:
  2148                           
  2149                           ;application.c: 291:         }
  2150   001824  2A25               	incf	_counter^0,f,c
  2151   001826  0E32               	movlw	50
  2152   001828  6425               	cpfsgt	_counter^0,c
  2153   00182A  EF19  F00C         	goto	u7241
  2154   00182E  EF1B  F00C         	goto	u7240
  2155   001832                     u7241:
  2156   001832  EFA4  F008         	goto	l8565
  2157   001836                     u7240:
  2158   001836  EFA2  F008         	goto	l8559
  2159   00183A  EF07  F000         	goto	start
  2160   00183E                     __end_of_main:
  2161                           	callstack 0
  2162                           
  2163 ;; *************** function _seven_segement_write_number *****************
  2164 ;; Defined at:
  2165 ;;		line 32 in file "mcal_layer/ecu_7seg.c"
  2166 ;; Parameters:    Size  Location     Type
  2167 ;;  seg             2   11[COMRAM] PTR const struct .
  2168 ;;		 -> segment_1(5), 
  2169 ;;  number          1   13[COMRAM] unsigned char 
  2170 ;; Auto vars:     Size  Location     Type
  2171 ;;  ret             1   14[COMRAM] unsigned char 
  2172 ;; Return value:  Size  Location     Type
  2173 ;;                  1    wreg      unsigned char 
  2174 ;; Registers used:
  2175 ;;		wreg, fsr2l, fsr2h, status,2, status,0, prodl, prodh, cstack
  2176 ;; Tracked objects:
  2177 ;;		On entry : 0/0
  2178 ;;		On exit  : 0/0
  2179 ;;		Unchanged: 0/0
  2180 ;; Data sizes:     COMRAM   BANK0   BANK1   BANK2   BANK3   BANK4   BANK5   BANK6   BANK7   BANK8   BANK9  BANK10  BANK1
      +1  BANK12  BANK13  BANK14  BANK15
  2181 ;;      Params:         3       0       0       0       0       0       0       0       0       0       0       0       
      +0       0       0       0       0
  2182 ;;      Locals:         1       0       0       0       0       0       0       0       0       0       0       0       
      +0       0       0       0       0
  2183 ;;      Temps:          0       0       0       0       0       0       0       0       0       0       0       0       
      +0       0       0       0       0
  2184 ;;      Totals:         4       0       0       0       0       0       0       0       0       0       0       0       
      +0       0       0       0       0
  2185 ;;Total ram usage:        4 bytes
  2186 ;; Hardware stack levels used: 1
  2187 ;; Hardware stack levels required when called: 3
  2188 ;; This function calls:
  2189 ;;		_gpio_pin_write_logic
  2190 ;; This function is called by:
  2191 ;;		_main
  2192 ;; This function uses a non-reentrant model
  2193 ;;
  2194                           
  2195                           	psect	text1
  2196   002680                     __ptext1:
  2197                           	callstack 0
  2198   002680                     _seven_segement_write_number:
  2199                           	callstack 27
  2200   002680                     
  2201                           ;mcal_layer/ecu_7seg.c: 34:     if((((void*)0) == seg) && (number > 9)){
  2202   002680  504B               	movf	seven_segement_write_number@seg^0,w,c
  2203   002682  104C               	iorwf	(seven_segement_write_number@seg+1)^0,w,c
  2204   002684  A4D8               	btfss	status,2,c
  2205   002686  EF47  F013         	goto	u6311
  2206   00268A  EF49  F013         	goto	u6310
  2207   00268E                     u6311:
  2208   00268E  EF55  F013         	goto	l7721
  2209   002692                     u6310:
  2210   002692  0E09               	movlw	9
  2211   002694  644D               	cpfsgt	seven_segement_write_number@number^0,c
  2212   002696  EF4F  F013         	goto	u6321
  2213   00269A  EF51  F013         	goto	u6320
  2214   00269E                     u6321:
  2215   00269E  EF55  F013         	goto	l7721
  2216   0026A2                     u6320:
  2217   0026A2                     
  2218                           ;mcal_layer/ecu_7seg.c: 35:         ret = ( Std_returntype)0x00;
  2219   0026A2  0E00               	movlw	0
  2220   0026A4  6E4E               	movwf	seven_segement_write_number@ret^0,c
  2221                           
  2222                           ;mcal_layer/ecu_7seg.c: 36:     }
  2223   0026A6  EF88  F013         	goto	l7723
  2224   0026AA                     l7721:
  2225                           
  2226                           ;mcal_layer/ecu_7seg.c: 38:         ret = gpio_pin_write_logic(&(seg->segment_pins[0]), 
      +                          number & 0x01);
  2227   0026AA  C04B  F041         	movff	seven_segement_write_number@seg,gpio_pin_write_logic@pin_config
  2228   0026AE  C04C  F042         	movff	seven_segement_write_number@seg+1,gpio_pin_write_logic@pin_config+1
  2229   0026B2  504D               	movf	seven_segement_write_number@number^0,w,c
  2230   0026B4  0B01               	andlw	1
  2231   0026B6  6E43               	movwf	gpio_pin_write_logic@logic^0,c
  2232   0026B8  EC87  F010         	call	_gpio_pin_write_logic	;wreg free
  2233   0026BC  6E4E               	movwf	seven_segement_write_number@ret^0,c
  2234                           
  2235                           ;mcal_layer/ecu_7seg.c: 39:         ret = gpio_pin_write_logic(&(seg->segment_pins[1]), 
      +                          (number>>1) & 0x01);
  2236   0026BE  0E01               	movlw	1
  2237   0026C0  244B               	addwf	seven_segement_write_number@seg^0,w,c
  2238   0026C2  6E41               	movwf	gpio_pin_write_logic@pin_config^0,c
  2239   0026C4  0E00               	movlw	0
  2240   0026C6  204C               	addwfc	(seven_segement_write_number@seg+1)^0,w,c
  2241   0026C8  6E42               	movwf	(gpio_pin_write_logic@pin_config+1)^0,c
  2242   0026CA  90D8               	bcf	status,0,c
  2243   0026CC  304D               	rrcf	seven_segement_write_number@number^0,w,c
  2244   0026CE  0B01               	andlw	1
  2245   0026D0  6E43               	movwf	gpio_pin_write_logic@logic^0,c
  2246   0026D2  EC87  F010         	call	_gpio_pin_write_logic	;wreg free
  2247   0026D6  6E4E               	movwf	seven_segement_write_number@ret^0,c
  2248                           
  2249                           ;mcal_layer/ecu_7seg.c: 40:         ret = gpio_pin_write_logic(&(seg->segment_pins[2]), 
      +                          (number>>2) & 0x01);
  2250   0026D8  0E02               	movlw	2
  2251   0026DA  244B               	addwf	seven_segement_write_number@seg^0,w,c
  2252   0026DC  6E41               	movwf	gpio_pin_write_logic@pin_config^0,c
  2253   0026DE  0E00               	movlw	0
  2254   0026E0  204C               	addwfc	(seven_segement_write_number@seg+1)^0,w,c
  2255   0026E2  6E42               	movwf	(gpio_pin_write_logic@pin_config+1)^0,c
  2256   0026E4  404D               	rrncf	seven_segement_write_number@number^0,w,c
  2257   0026E6  42E8               	rrncf	wreg,f,c
  2258   0026E8  0B3F               	andlw	63
  2259   0026EA  0B01               	andlw	1
  2260   0026EC  6E43               	movwf	gpio_pin_write_logic@logic^0,c
  2261   0026EE  EC87  F010         	call	_gpio_pin_write_logic	;wreg free
  2262   0026F2  6E4E               	movwf	seven_segement_write_number@ret^0,c
  2263                           
  2264                           ;mcal_layer/ecu_7seg.c: 41:         ret = gpio_pin_write_logic(&(seg->segment_pins[3]), 
      +                          (number>>3) & 0x01);
  2265   0026F4  0E03               	movlw	3
  2266   0026F6  244B               	addwf	seven_segement_write_number@seg^0,w,c
  2267   0026F8  6E41               	movwf	gpio_pin_write_logic@pin_config^0,c
  2268   0026FA  0E00               	movlw	0
  2269   0026FC  204C               	addwfc	(seven_segement_write_number@seg+1)^0,w,c
  2270   0026FE  6E42               	movwf	(gpio_pin_write_logic@pin_config+1)^0,c
  2271   002700  384D               	swapf	seven_segement_write_number@number^0,w,c
  2272   002702  46E8               	rlncf	wreg,f,c
  2273   002704  0B1F               	andlw	31
  2274   002706  0B01               	andlw	1
  2275   002708  6E43               	movwf	gpio_pin_write_logic@logic^0,c
  2276   00270A  EC87  F010         	call	_gpio_pin_write_logic	;wreg free
  2277   00270E  6E4E               	movwf	seven_segement_write_number@ret^0,c
  2278   002710                     l7723:
  2279                           
  2280                           ;mcal_layer/ecu_7seg.c: 43:     return ret;
  2281   002710  504E               	movf	seven_segement_write_number@ret^0,w,c
  2282   002712  0012               	return		;funcret
  2283   002714                     __end_of_seven_segement_write_number:
  2284                           	callstack 0
  2285                           
  2286 ;; *************** function _led_turn_on *****************
  2287 ;; Defined at:
  2288 ;;		line 35 in file "mcal_layer/ecu_led.c"
  2289 ;; Parameters:    Size  Location     Type
  2290 ;;  led             2   11[COMRAM] PTR const struct .
  2291 ;;		 -> led1(1), led2(1), 
  2292 ;; Auto vars:     Size  Location     Type
  2293 ;;  object          1   14[COMRAM] struct .
  2294 ;;  ret             1    0        unsigned char 
  2295 ;; Return value:  Size  Location     Type
  2296 ;;                  1    wreg      unsigned char 
  2297 ;; Registers used:
  2298 ;;		wreg, fsr2l, fsr2h, status,2, status,0, prodl, prodh, cstack
  2299 ;; Tracked objects:
  2300 ;;		On entry : 0/0
  2301 ;;		On exit  : 0/0
  2302 ;;		Unchanged: 0/0
  2303 ;; Data sizes:     COMRAM   BANK0   BANK1   BANK2   BANK3   BANK4   BANK5   BANK6   BANK7   BANK8   BANK9  BANK10  BANK1
      +1  BANK12  BANK13  BANK14  BANK15
  2304 ;;      Params:         2       0       0       0       0       0       0       0       0       0       0       0       
      +0       0       0       0       0
  2305 ;;      Locals:         1       0       0       0       0       0       0       0       0       0       0       0       
      +0       0       0       0       0
  2306 ;;      Temps:          1       0       0       0       0       0       0       0       0       0       0       0       
      +0       0       0       0       0
  2307 ;;      Totals:         4       0       0       0       0       0       0       0       0       0       0       0       
      +0       0       0       0       0
  2308 ;;Total ram usage:        4 bytes
  2309 ;; Hardware stack levels used: 1
  2310 ;; Hardware stack levels required when called: 3
  2311 ;; This function calls:
  2312 ;;		_gpio_pin_write_logic
  2313 ;; This function is called by:
  2314 ;;		_main
  2315 ;; This function uses a non-reentrant model
  2316 ;;
  2317                           
  2318                           	psect	text2
  2319   00299C                     __ptext2:
  2320                           	callstack 0
  2321   00299C                     _led_turn_on:
  2322                           	callstack 27
  2323   00299C                     
  2324                           ;mcal_layer/ecu_led.c: 37:     if(((void*)0) == led){
  2325   00299C  504B               	movf	led_turn_on@led^0,w,c
  2326   00299E  104C               	iorwf	(led_turn_on@led+1)^0,w,c
  2327   0029A0  A4D8               	btfss	status,2,c
  2328   0029A2  EFD5  F014         	goto	u6621
  2329   0029A6  EFD7  F014         	goto	u6620
  2330   0029AA                     u6621:
  2331   0029AA  EFD9  F014         	goto	l340
  2332   0029AE                     u6620:
  2333   0029AE                     
  2334                           ;mcal_layer/ecu_led.c: 39:     }
  2335   0029AE  EF08  F015         	goto	l344
  2336   0029B2                     l340:
  2337                           
  2338                           ;mcal_layer/ecu_led.c: 41:         pin_config_t object = {.port=led->port_name,.pin=led-
      +                          >pin, .direction=OUTPUT,.logic=led->led_status};
  2339   0029B2  C02C  F04E         	movff	led_turn_on@F3053,led_turn_on@object
  2340   0029B6  C04B  FFD9         	movff	led_turn_on@led,fsr2l
  2341   0029BA  C04C  FFDA         	movff	led_turn_on@led+1,fsr2h
  2342   0029BE  50DF               	movf	223,w,c
  2343   0029C0  0B0F               	andlw	15
  2344   0029C2  6E4D               	movwf	??_led_turn_on^0,c
  2345   0029C4  504E               	movf	led_turn_on@object^0,w,c
  2346   0029C6  184D               	xorwf	??_led_turn_on^0,w,c
  2347   0029C8  0BF8               	andlw	-8
  2348   0029CA  184D               	xorwf	??_led_turn_on^0,w,c
  2349   0029CC  6E4E               	movwf	led_turn_on@object^0,c
  2350   0029CE  C04B  FFD9         	movff	led_turn_on@led,fsr2l
  2351   0029D2  C04C  FFDA         	movff	led_turn_on@led+1,fsr2h
  2352   0029D6  38DF               	swapf	223,w,c
  2353   0029D8  0B07               	andlw	7
  2354   0029DA  6E4D               	movwf	??_led_turn_on^0,c
  2355   0029DC  464D               	rlncf	??_led_turn_on^0,f,c
  2356   0029DE  464D               	rlncf	??_led_turn_on^0,f,c
  2357   0029E0  464D               	rlncf	??_led_turn_on^0,f,c
  2358   0029E2  504E               	movf	led_turn_on@object^0,w,c
  2359   0029E4  184D               	xorwf	??_led_turn_on^0,w,c
  2360   0029E6  0BC7               	andlw	-57
  2361   0029E8  184D               	xorwf	??_led_turn_on^0,w,c
  2362   0029EA  6E4E               	movwf	led_turn_on@object^0,c
  2363   0029EC  9C4E               	bcf	led_turn_on@object^0,6,c
  2364   0029EE  C04B  FFD9         	movff	led_turn_on@led,fsr2l
  2365   0029F2  C04C  FFDA         	movff	led_turn_on@led+1,fsr2h
  2366   0029F6  AEDF               	btfss	indf2,7,c
  2367   0029F8  D002               	bra	u6635
  2368   0029FA  8E4E               	bsf	led_turn_on@object^0,7,c
  2369   0029FC  D001               	bra	u6637
  2370   0029FE                     u6635:
  2371   0029FE  9E4E               	bcf	led_turn_on@object^0,7,c
  2372   002A00                     u6637:
  2373   002A00                     
  2374                           ;mcal_layer/ecu_led.c: 42:        gpio_pin_write_logic(&object , HIGH );
  2375   002A00  0E4E               	movlw	low led_turn_on@object
  2376   002A02  6E41               	movwf	gpio_pin_write_logic@pin_config^0,c
  2377   002A04  0E00               	movlw	high led_turn_on@object
  2378   002A06  6E42               	movwf	(gpio_pin_write_logic@pin_config+1)^0,c
  2379   002A08  0E01               	movlw	1
  2380   002A0A  6E43               	movwf	gpio_pin_write_logic@logic^0,c
  2381   002A0C  EC87  F010         	call	_gpio_pin_write_logic	;wreg free
  2382   002A10                     l344:
  2383   002A10  0012               	return		;funcret
  2384   002A12                     __end_of_led_turn_on:
  2385                           	callstack 0
  2386                           
  2387 ;; *************** function _led_turn_off *****************
  2388 ;; Defined at:
  2389 ;;		line 57 in file "mcal_layer/ecu_led.c"
  2390 ;; Parameters:    Size  Location     Type
  2391 ;;  led             2   11[COMRAM] PTR const struct .
  2392 ;;		 -> led1(1), led2(1), 
  2393 ;; Auto vars:     Size  Location     Type
  2394 ;;  object          1   14[COMRAM] struct .
  2395 ;;  ret             1    0        unsigned char 
  2396 ;; Return value:  Size  Location     Type
  2397 ;;                  1    wreg      unsigned char 
  2398 ;; Registers used:
  2399 ;;		wreg, fsr2l, fsr2h, status,2, status,0, prodl, prodh, cstack
  2400 ;; Tracked objects:
  2401 ;;		On entry : 0/0
  2402 ;;		On exit  : 0/0
  2403 ;;		Unchanged: 0/0
  2404 ;; Data sizes:     COMRAM   BANK0   BANK1   BANK2   BANK3   BANK4   BANK5   BANK6   BANK7   BANK8   BANK9  BANK10  BANK1
      +1  BANK12  BANK13  BANK14  BANK15
  2405 ;;      Params:         2       0       0       0       0       0       0       0       0       0       0       0       
      +0       0       0       0       0
  2406 ;;      Locals:         1       0       0       0       0       0       0       0       0       0       0       0       
      +0       0       0       0       0
  2407 ;;      Temps:          1       0       0       0       0       0       0       0       0       0       0       0       
      +0       0       0       0       0
  2408 ;;      Totals:         4       0       0       0       0       0       0       0       0       0       0       0       
      +0       0       0       0       0
  2409 ;;Total ram usage:        4 bytes
  2410 ;; Hardware stack levels used: 1
  2411 ;; Hardware stack levels required when called: 3
  2412 ;; This function calls:
  2413 ;;		_gpio_pin_write_logic
  2414 ;; This function is called by:
  2415 ;;		_main
  2416 ;; This function uses a non-reentrant model
  2417 ;;
  2418                           
  2419                           	psect	text3
  2420   002A12                     __ptext3:
  2421                           	callstack 0
  2422   002A12                     _led_turn_off:
  2423                           	callstack 27
  2424   002A12                     
  2425                           ;mcal_layer/ecu_led.c: 60:     if(((void*)0) == led){
  2426   002A12  504B               	movf	led_turn_off@led^0,w,c
  2427   002A14  104C               	iorwf	(led_turn_off@led+1)^0,w,c
  2428   002A16  A4D8               	btfss	status,2,c
  2429   002A18  EF10  F015         	goto	u6641
  2430   002A1C  EF12  F015         	goto	u6640
  2431   002A20                     u6641:
  2432   002A20  EF14  F015         	goto	l347
  2433   002A24                     u6640:
  2434   002A24                     
  2435                           ;mcal_layer/ecu_led.c: 62:     }
  2436   002A24  EF43  F015         	goto	l351
  2437   002A28                     l347:
  2438                           
  2439                           ;mcal_layer/ecu_led.c: 64:       pin_config_t object = {.port=led->port_name,.pin=led->p
      +                          in, .direction=OUTPUT,.logic=led->led_status};
  2440   002A28  C02B  F04E         	movff	led_turn_off@F3058,led_turn_off@object
  2441   002A2C  C04B  FFD9         	movff	led_turn_off@led,fsr2l
  2442   002A30  C04C  FFDA         	movff	led_turn_off@led+1,fsr2h
  2443   002A34  50DF               	movf	223,w,c
  2444   002A36  0B0F               	andlw	15
  2445   002A38  6E4D               	movwf	??_led_turn_off^0,c
  2446   002A3A  504E               	movf	led_turn_off@object^0,w,c
  2447   002A3C  184D               	xorwf	??_led_turn_off^0,w,c
  2448   002A3E  0BF8               	andlw	-8
  2449   002A40  184D               	xorwf	??_led_turn_off^0,w,c
  2450   002A42  6E4E               	movwf	led_turn_off@object^0,c
  2451   002A44  C04B  FFD9         	movff	led_turn_off@led,fsr2l
  2452   002A48  C04C  FFDA         	movff	led_turn_off@led+1,fsr2h
  2453   002A4C  38DF               	swapf	223,w,c
  2454   002A4E  0B07               	andlw	7
  2455   002A50  6E4D               	movwf	??_led_turn_off^0,c
  2456   002A52  464D               	rlncf	??_led_turn_off^0,f,c
  2457   002A54  464D               	rlncf	??_led_turn_off^0,f,c
  2458   002A56  464D               	rlncf	??_led_turn_off^0,f,c
  2459   002A58  504E               	movf	led_turn_off@object^0,w,c
  2460   002A5A  184D               	xorwf	??_led_turn_off^0,w,c
  2461   002A5C  0BC7               	andlw	-57
  2462   002A5E  184D               	xorwf	??_led_turn_off^0,w,c
  2463   002A60  6E4E               	movwf	led_turn_off@object^0,c
  2464   002A62  9C4E               	bcf	led_turn_off@object^0,6,c
  2465   002A64  C04B  FFD9         	movff	led_turn_off@led,fsr2l
  2466   002A68  C04C  FFDA         	movff	led_turn_off@led+1,fsr2h
  2467   002A6C  AEDF               	btfss	indf2,7,c
  2468   002A6E  D002               	bra	u6655
  2469   002A70  8E4E               	bsf	led_turn_off@object^0,7,c
  2470   002A72  D001               	bra	u6657
  2471   002A74                     u6655:
  2472   002A74  9E4E               	bcf	led_turn_off@object^0,7,c
  2473   002A76                     u6657:
  2474   002A76                     
  2475                           ;mcal_layer/ecu_led.c: 65:        gpio_pin_write_logic(&object , LOW );
  2476   002A76  0E4E               	movlw	low led_turn_off@object
  2477   002A78  6E41               	movwf	gpio_pin_write_logic@pin_config^0,c
  2478   002A7A  0E00               	movlw	high led_turn_off@object
  2479   002A7C  6E42               	movwf	(gpio_pin_write_logic@pin_config+1)^0,c
  2480   002A7E  0E00               	movlw	0
  2481   002A80  6E43               	movwf	gpio_pin_write_logic@logic^0,c
  2482   002A82  EC87  F010         	call	_gpio_pin_write_logic	;wreg free
  2483   002A86                     l351:
  2484   002A86  0012               	return		;funcret
  2485   002A88                     __end_of_led_turn_off:
  2486                           	callstack 0
  2487                           
  2488 ;; *************** function _lcd_4bit_send_string_pos *****************
  2489 ;; Defined at:
  2490 ;;		line 132 in file "mcal_layer/ecu_lcd.c"
  2491 ;; Parameters:    Size  Location     Type
  2492 ;;  lcd             2   27[COMRAM] PTR const struct .
  2493 ;;		 -> lcd_1(6), 
  2494 ;;  row             1   29[COMRAM] unsigned char 
  2495 ;;  column          1   30[COMRAM] unsigned char 
  2496 ;;  str             2   31[COMRAM] PTR unsigned char 
  2497 ;;		 -> STR_14(10), STR_13(11), STR_12(15), STR_11(10), 
  2498 ;;		 -> STR_10(15), STR_9(8), STR_8(10), STR_7(10), 
  2499 ;;		 -> STR_6(10), STR_5(15), STR_4(14), STR_3(11), 
  2500 ;; Auto vars:     Size  Location     Type
  2501 ;;  ret             1   34[COMRAM] unsigned char 
  2502 ;;  l_data_pins_    1   33[COMRAM] unsigned char 
  2503 ;; Return value:  Size  Location     Type
  2504 ;;                  1    wreg      unsigned char 
  2505 ;; Registers used:
  2506 ;;		wreg, fsr2l, fsr2h, status,2, status,0, tblptrl, tblptrh, tblptru, prodl, prodh, cstack
  2507 ;; Tracked objects:
  2508 ;;		On entry : 0/0
  2509 ;;		On exit  : 0/0
  2510 ;;		Unchanged: 0/0
  2511 ;; Data sizes:     COMRAM   BANK0   BANK1   BANK2   BANK3   BANK4   BANK5   BANK6   BANK7   BANK8   BANK9  BANK10  BANK1
      +1  BANK12  BANK13  BANK14  BANK15
  2512 ;;      Params:         6       0       0       0       0       0       0       0       0       0       0       0       
      +0       0       0       0       0
  2513 ;;      Locals:         2       0       0       0       0       0       0       0       0       0       0       0       
      +0       0       0       0       0
  2514 ;;      Temps:          0       0       0       0       0       0       0       0       0       0       0       0       
      +0       0       0       0       0
  2515 ;;      Totals:         8       0       0       0       0       0       0       0       0       0       0       0       
      +0       0       0       0       0
  2516 ;;Total ram usage:        8 bytes
  2517 ;; Hardware stack levels used: 1
  2518 ;; Hardware stack levels required when called: 6
  2519 ;; This function calls:
  2520 ;;		_lcd_4bit_send_char_data
  2521 ;;		_lcd_4bit_set_cursor
  2522 ;; This function is called by:
  2523 ;;		_main
  2524 ;; This function uses a non-reentrant model
  2525 ;;
  2526                           
  2527                           	psect	text4
  2528   0028A4                     __ptext4:
  2529                           	callstack 0
  2530   0028A4                     _lcd_4bit_send_string_pos:
  2531                           	callstack 24
  2532   0028A4                     
  2533                           ;mcal_layer/ecu_lcd.c: 134:      uint8 l_data_pins_counter = 0;
  2534   0028A4  0E00               	movlw	0
  2535   0028A6  6E61               	movwf	lcd_4bit_send_string_pos@l_data_pins_counter^0,c
  2536   0028A8                     
  2537                           ;mcal_layer/ecu_lcd.c: 136:     if(((void*)0) == lcd){
  2538   0028A8  505B               	movf	lcd_4bit_send_string_pos@lcd^0,w,c
  2539   0028AA  105C               	iorwf	(lcd_4bit_send_string_pos@lcd+1)^0,w,c
  2540   0028AC  A4D8               	btfss	status,2,c
  2541   0028AE  EF5B  F014         	goto	u6341
  2542   0028B2  EF5D  F014         	goto	u6340
  2543   0028B6                     u6341:
  2544   0028B6  EF61  F014         	goto	l7745
  2545   0028BA                     u6340:
  2546   0028BA                     
  2547                           ;mcal_layer/ecu_lcd.c: 137:         ret = ( Std_returntype)0x00;
  2548   0028BA  0E00               	movlw	0
  2549   0028BC  6E62               	movwf	lcd_4bit_send_string_pos@ret^0,c
  2550                           
  2551                           ;mcal_layer/ecu_lcd.c: 138:     }
  2552   0028BE  EF8E  F014         	goto	l7753
  2553   0028C2                     l7745:
  2554                           
  2555                           ;mcal_layer/ecu_lcd.c: 140:                     ret = lcd_4bit_set_cursor(lcd, row, colu
      +                          mn);
  2556   0028C2  C05B  F054         	movff	lcd_4bit_send_string_pos@lcd,lcd_4bit_set_cursor@lcd
  2557   0028C6  C05C  F055         	movff	lcd_4bit_send_string_pos@lcd+1,lcd_4bit_set_cursor@lcd+1
  2558   0028CA  C05D  F056         	movff	lcd_4bit_send_string_pos@row,lcd_4bit_set_cursor@row
  2559   0028CE  C05E  F057         	movff	lcd_4bit_send_string_pos@column,lcd_4bit_set_cursor@coulmn
  2560   0028D2  EC9A  F012         	call	_lcd_4bit_set_cursor	;wreg free
  2561   0028D6  6E62               	movwf	lcd_4bit_send_string_pos@ret^0,c
  2562                           
  2563                           ;mcal_layer/ecu_lcd.c: 142:        while(*str){
  2564   0028D8  EF7F  F014         	goto	l7751
  2565   0028DC                     l7747:
  2566                           
  2567                           ;mcal_layer/ecu_lcd.c: 143:             ret = lcd_4bit_send_char_data(lcd, *str++);
  2568   0028DC  C05B  F04F         	movff	lcd_4bit_send_string_pos@lcd,lcd_4bit_send_char_data@lcd
  2569   0028E0  C05C  F050         	movff	lcd_4bit_send_string_pos@lcd+1,lcd_4bit_send_char_data@lcd+1
  2570   0028E4  C05F  FFF6         	movff	lcd_4bit_send_string_pos@str,tblptrl
  2571   0028E8  C060  FFF7         	movff	lcd_4bit_send_string_pos@str+1,tblptrh
  2572   0028EC                     	if	1	;Program memory is < 0x10000, tblptru is always zero
  2573   0028EC  6AF8               	clrf	tblptru,c
  2574   0028EE                     	endif
  2575   0028EE                     	if	0	;tblptru may be non-zero
  2576   0028EE                     	endif
  2577   0028EE  0008               	tblrd		*
  2578   0028F0  CFF5 F051          	movff	tablat,lcd_4bit_send_char_data@data
  2579   0028F4  EC44  F015         	call	_lcd_4bit_send_char_data	;wreg free
  2580   0028F8  6E62               	movwf	lcd_4bit_send_string_pos@ret^0,c
  2581   0028FA  4A5F               	infsnz	lcd_4bit_send_string_pos@str^0,f,c
  2582   0028FC  2A60               	incf	(lcd_4bit_send_string_pos@str+1)^0,f,c
  2583   0028FE                     l7751:
  2584                           
  2585                           ;mcal_layer/ecu_lcd.c: 142:        while(*str){
  2586   0028FE  C05F  FFF6         	movff	lcd_4bit_send_string_pos@str,tblptrl
  2587   002902  C060  FFF7         	movff	lcd_4bit_send_string_pos@str+1,tblptrh
  2588   002906                     	if	1	;Program memory is < 0x10000, tblptru is always zero
  2589   002906  6AF8               	clrf	tblptru,c
  2590   002908                     	endif
  2591   002908                     	if	0	;tblptru may be non-zero
  2592   002908                     	endif
  2593   002908  0008               	tblrd		*
  2594   00290A  50F5               	movf	tablat,w,c
  2595   00290C  0900               	iorlw	0
  2596   00290E  A4D8               	btfss	status,2,c
  2597   002910  EF8C  F014         	goto	u6351
  2598   002914  EF8E  F014         	goto	u6350
  2599   002918                     u6351:
  2600   002918  EF6E  F014         	goto	l7747
  2601   00291C                     u6350:
  2602   00291C                     l7753:
  2603                           
  2604                           ;mcal_layer/ecu_lcd.c: 145:     return ret;}
  2605   00291C  5062               	movf	lcd_4bit_send_string_pos@ret^0,w,c
  2606   00291E  0012               	return		;funcret
  2607   002920                     __end_of_lcd_4bit_send_string_pos:
  2608                           	callstack 0
  2609                           
  2610 ;; *************** function _lcd_4bit_send_char_data_pos *****************
  2611 ;; Defined at:
  2612 ;;		line 99 in file "mcal_layer/ecu_lcd.c"
  2613 ;; Parameters:    Size  Location     Type
  2614 ;;  lcd             2   27[COMRAM] PTR const struct .
  2615 ;;		 -> lcd_1(6), 
  2616 ;;  row             1   29[COMRAM] unsigned char 
  2617 ;;  column          1   30[COMRAM] unsigned char 
  2618 ;;  data            1   31[COMRAM] unsigned char 
  2619 ;; Auto vars:     Size  Location     Type
  2620 ;;  ret             1   33[COMRAM] unsigned char 
  2621 ;;  l_data_pins_    1   32[COMRAM] unsigned char 
  2622 ;; Return value:  Size  Location     Type
  2623 ;;                  1    wreg      unsigned char 
  2624 ;; Registers used:
  2625 ;;		wreg, fsr2l, fsr2h, status,2, status,0, prodl, prodh, cstack
  2626 ;; Tracked objects:
  2627 ;;		On entry : 0/0
  2628 ;;		On exit  : 0/0
  2629 ;;		Unchanged: 0/0
  2630 ;; Data sizes:     COMRAM   BANK0   BANK1   BANK2   BANK3   BANK4   BANK5   BANK6   BANK7   BANK8   BANK9  BANK10  BANK1
      +1  BANK12  BANK13  BANK14  BANK15
  2631 ;;      Params:         5       0       0       0       0       0       0       0       0       0       0       0       
      +0       0       0       0       0
  2632 ;;      Locals:         2       0       0       0       0       0       0       0       0       0       0       0       
      +0       0       0       0       0
  2633 ;;      Temps:          0       0       0       0       0       0       0       0       0       0       0       0       
      +0       0       0       0       0
  2634 ;;      Totals:         7       0       0       0       0       0       0       0       0       0       0       0       
      +0       0       0       0       0
  2635 ;;Total ram usage:        7 bytes
  2636 ;; Hardware stack levels used: 1
  2637 ;; Hardware stack levels required when called: 6
  2638 ;; This function calls:
  2639 ;;		_lcd_4bit_send_char_data
  2640 ;;		_lcd_4bit_set_cursor
  2641 ;; This function is called by:
  2642 ;;		_main
  2643 ;;		_lcd_4bit_send_custom_char
  2644 ;; This function uses a non-reentrant model
  2645 ;;
  2646                           
  2647                           	psect	text5
  2648   002E92                     __ptext5:
  2649                           	callstack 0
  2650   002E92                     _lcd_4bit_send_char_data_pos:
  2651                           	callstack 24
  2652   002E92                     
  2653                           ;mcal_layer/ecu_lcd.c: 103:      uint8 l_data_pins_counter = 0;
  2654   002E92  0E00               	movlw	0
  2655   002E94  6E60               	movwf	lcd_4bit_send_char_data_pos@l_data_pins_counter^0,c
  2656   002E96                     
  2657                           ;mcal_layer/ecu_lcd.c: 105:     if(((void*)0) == lcd){
  2658   002E96  505B               	movf	lcd_4bit_send_char_data_pos@lcd^0,w,c
  2659   002E98  105C               	iorwf	(lcd_4bit_send_char_data_pos@lcd+1)^0,w,c
  2660   002E9A  A4D8               	btfss	status,2,c
  2661   002E9C  EF52  F017         	goto	u6331
  2662   002EA0  EF54  F017         	goto	u6330
  2663   002EA4                     u6331:
  2664   002EA4  EF58  F017         	goto	l7733
  2665   002EA8                     u6330:
  2666   002EA8                     
  2667                           ;mcal_layer/ecu_lcd.c: 106:         ret = ( Std_returntype)0x00;
  2668   002EA8  0E00               	movlw	0
  2669   002EAA  6E61               	movwf	lcd_4bit_send_char_data_pos@ret^0,c
  2670                           
  2671                           ;mcal_layer/ecu_lcd.c: 107:     }
  2672   002EAC  EF6C  F017         	goto	l7735
  2673   002EB0                     l7733:
  2674                           
  2675                           ;mcal_layer/ecu_lcd.c: 109:        ret = lcd_4bit_set_cursor(lcd, row, column);
  2676   002EB0  C05B  F054         	movff	lcd_4bit_send_char_data_pos@lcd,lcd_4bit_set_cursor@lcd
  2677   002EB4  C05C  F055         	movff	lcd_4bit_send_char_data_pos@lcd+1,lcd_4bit_set_cursor@lcd+1
  2678   002EB8  C05D  F056         	movff	lcd_4bit_send_char_data_pos@row,lcd_4bit_set_cursor@row
  2679   002EBC  C05E  F057         	movff	lcd_4bit_send_char_data_pos@column,lcd_4bit_set_cursor@coulmn
  2680   002EC0  EC9A  F012         	call	_lcd_4bit_set_cursor	;wreg free
  2681   002EC4  6E61               	movwf	lcd_4bit_send_char_data_pos@ret^0,c
  2682                           
  2683                           ;mcal_layer/ecu_lcd.c: 110:        ret = lcd_4bit_send_char_data(lcd, data);
  2684   002EC6  C05B  F04F         	movff	lcd_4bit_send_char_data_pos@lcd,lcd_4bit_send_char_data@lcd
  2685   002ECA  C05C  F050         	movff	lcd_4bit_send_char_data_pos@lcd+1,lcd_4bit_send_char_data@lcd+1
  2686   002ECE  C05F  F051         	movff	lcd_4bit_send_char_data_pos@data,lcd_4bit_send_char_data@data
  2687   002ED2  EC44  F015         	call	_lcd_4bit_send_char_data	;wreg free
  2688   002ED6  6E61               	movwf	lcd_4bit_send_char_data_pos@ret^0,c
  2689   002ED8                     l7735:
  2690                           
  2691                           ;mcal_layer/ecu_lcd.c: 112:     return ret;
  2692   002ED8  5061               	movf	lcd_4bit_send_char_data_pos@ret^0,w,c
  2693   002EDA  0012               	return		;funcret
  2694   002EDC                     __end_of_lcd_4bit_send_char_data_pos:
  2695                           	callstack 0
  2696                           
  2697 ;; *************** function _lcd_4bit_set_cursor *****************
  2698 ;; Defined at:
  2699 ;;		line 431 in file "mcal_layer/ecu_lcd.c"
  2700 ;; Parameters:    Size  Location     Type
  2701 ;;  lcd             2   20[COMRAM] PTR const struct .
  2702 ;;		 -> lcd_1(6), 
  2703 ;;  row             1   22[COMRAM] unsigned char 
  2704 ;;  coulmn          1   23[COMRAM] unsigned char 
  2705 ;; Auto vars:     Size  Location     Type
  2706 ;;  ret             1   26[COMRAM] unsigned char 
  2707 ;; Return value:  Size  Location     Type
  2708 ;;                  1    wreg      unsigned char 
  2709 ;; Registers used:
  2710 ;;		wreg, fsr2l, fsr2h, status,2, status,0, prodl, prodh, cstack
  2711 ;; Tracked objects:
  2712 ;;		On entry : 0/0
  2713 ;;		On exit  : 0/0
  2714 ;;		Unchanged: 0/0
  2715 ;; Data sizes:     COMRAM   BANK0   BANK1   BANK2   BANK3   BANK4   BANK5   BANK6   BANK7   BANK8   BANK9  BANK10  BANK1
      +1  BANK12  BANK13  BANK14  BANK15
  2716 ;;      Params:         4       0       0       0       0       0       0       0       0       0       0       0       
      +0       0       0       0       0
  2717 ;;      Locals:         1       0       0       0       0       0       0       0       0       0       0       0       
      +0       0       0       0       0
  2718 ;;      Temps:          2       0       0       0       0       0       0       0       0       0       0       0       
      +0       0       0       0       0
  2719 ;;      Totals:         7       0       0       0       0       0       0       0       0       0       0       0       
      +0       0       0       0       0
  2720 ;;Total ram usage:        7 bytes
  2721 ;; Hardware stack levels used: 1
  2722 ;; Hardware stack levels required when called: 5
  2723 ;; This function calls:
  2724 ;;		_lcd_4bit_send_command
  2725 ;; This function is called by:
  2726 ;;		_lcd_4bit_send_char_data_pos
  2727 ;;		_lcd_4bit_send_string_pos
  2728 ;; This function uses a non-reentrant model
  2729 ;;
  2730                           
  2731                           	psect	text6
  2732   002534                     __ptext6:
  2733                           	callstack 0
  2734   002534                     _lcd_4bit_set_cursor:
  2735                           	callstack 24
  2736   002534                     
  2737                           ;mcal_layer/ecu_lcd.c: 432:     Std_returntype ret = ( Std_returntype)0x01;
  2738   002534  0E01               	movlw	1
  2739   002536  6E5A               	movwf	lcd_4bit_set_cursor@ret^0,c
  2740   002538                     
  2741                           ;mcal_layer/ecu_lcd.c: 433:     coulmn--;
  2742   002538  0657               	decf	lcd_4bit_set_cursor@coulmn^0,f,c
  2743                           
  2744                           ;mcal_layer/ecu_lcd.c: 434:     switch(row){
  2745   00253A  EFCF  F012         	goto	l7581
  2746   00253E                     l7573:
  2747   00253E  C054  F04F         	movff	lcd_4bit_set_cursor@lcd,lcd_4bit_send_command@lcd
  2748   002542  C055  F050         	movff	lcd_4bit_set_cursor@lcd+1,lcd_4bit_send_command@lcd+1
  2749   002546  5057               	movf	lcd_4bit_set_cursor@coulmn^0,w,c
  2750   002548  0F80               	addlw	128
  2751   00254A  6E51               	movwf	lcd_4bit_send_command@command^0,c
  2752   00254C  EC7F  F015         	call	_lcd_4bit_send_command	;wreg free
  2753   002550  6E5A               	movwf	lcd_4bit_set_cursor@ret^0,c
  2754   002552  EFEC  F012         	goto	l7583
  2755   002556                     l7575:
  2756   002556  C054  F04F         	movff	lcd_4bit_set_cursor@lcd,lcd_4bit_send_command@lcd
  2757   00255A  C055  F050         	movff	lcd_4bit_set_cursor@lcd+1,lcd_4bit_send_command@lcd+1
  2758   00255E  5057               	movf	lcd_4bit_set_cursor@coulmn^0,w,c
  2759   002560  0FC0               	addlw	192
  2760   002562  6E51               	movwf	lcd_4bit_send_command@command^0,c
  2761   002564  EC7F  F015         	call	_lcd_4bit_send_command	;wreg free
  2762   002568  6E5A               	movwf	lcd_4bit_set_cursor@ret^0,c
  2763   00256A  EFEC  F012         	goto	l7583
  2764   00256E                     l7577:
  2765   00256E  C054  F04F         	movff	lcd_4bit_set_cursor@lcd,lcd_4bit_send_command@lcd
  2766   002572  C055  F050         	movff	lcd_4bit_set_cursor@lcd+1,lcd_4bit_send_command@lcd+1
  2767   002576  5057               	movf	lcd_4bit_set_cursor@coulmn^0,w,c
  2768   002578  0F94               	addlw	148
  2769   00257A  6E51               	movwf	lcd_4bit_send_command@command^0,c
  2770   00257C  EC7F  F015         	call	_lcd_4bit_send_command	;wreg free
  2771   002580  6E5A               	movwf	lcd_4bit_set_cursor@ret^0,c
  2772   002582  EFEC  F012         	goto	l7583
  2773   002586                     l7579:
  2774   002586  C054  F04F         	movff	lcd_4bit_set_cursor@lcd,lcd_4bit_send_command@lcd
  2775   00258A  C055  F050         	movff	lcd_4bit_set_cursor@lcd+1,lcd_4bit_send_command@lcd+1
  2776   00258E  5057               	movf	lcd_4bit_set_cursor@coulmn^0,w,c
  2777   002590  0FD4               	addlw	212
  2778   002592  6E51               	movwf	lcd_4bit_send_command@command^0,c
  2779   002594  EC7F  F015         	call	_lcd_4bit_send_command	;wreg free
  2780   002598  6E5A               	movwf	lcd_4bit_set_cursor@ret^0,c
  2781   00259A  EFEC  F012         	goto	l7583
  2782   00259E                     l7581:
  2783   00259E  5056               	movf	lcd_4bit_set_cursor@row^0,w,c
  2784   0025A0  6E58               	movwf	??_lcd_4bit_set_cursor^0,c
  2785   0025A2  6A59               	clrf	(??_lcd_4bit_set_cursor+1)^0,c
  2786                           
  2787                           ; Switch on 2 bytes has been partitioned into a top level switch of size 1, and 1 sub-sw
      +                          itches
  2788                           ; Switch size 1, requested type "simple"
  2789                           ; Number of cases is 1, Range of values is 0 to 0
  2790                           ; switch strategies available:
  2791                           ; Name         Instructions Cycles
  2792                           ; simple_byte            4     3 (average)
  2793                           ;	Chosen strategy is simple_byte
  2794   0025A4  5059               	movf	(??_lcd_4bit_set_cursor+1)^0,w,c
  2795   0025A6  0A00               	xorlw	0	; case 0
  2796   0025A8  B4D8               	btfsc	status,2,c
  2797   0025AA  EFD9  F012         	goto	l8789
  2798   0025AE  EFEC  F012         	goto	l7583
  2799   0025B2                     l8789:
  2800                           
  2801                           ; Switch size 1, requested type "simple"
  2802                           ; Number of cases is 4, Range of values is 1 to 4
  2803                           ; switch strategies available:
  2804                           ; Name         Instructions Cycles
  2805                           ; simple_byte           13     7 (average)
  2806                           ;	Chosen strategy is simple_byte
  2807   0025B2  5058               	movf	??_lcd_4bit_set_cursor^0,w,c
  2808   0025B4  0A01               	xorlw	1	; case 1
  2809   0025B6  B4D8               	btfsc	status,2,c
  2810   0025B8  EF9F  F012         	goto	l7573
  2811   0025BC  0A03               	xorlw	3	; case 2
  2812   0025BE  B4D8               	btfsc	status,2,c
  2813   0025C0  EFAB  F012         	goto	l7575
  2814   0025C4  0A01               	xorlw	1	; case 3
  2815   0025C6  B4D8               	btfsc	status,2,c
  2816   0025C8  EFB7  F012         	goto	l7577
  2817   0025CC  0A07               	xorlw	7	; case 4
  2818   0025CE  B4D8               	btfsc	status,2,c
  2819   0025D0  EFC3  F012         	goto	l7579
  2820   0025D4  EFEC  F012         	goto	l7583
  2821   0025D8                     l7583:
  2822                           
  2823                           ;mcal_layer/ecu_lcd.c: 441:     return ret;
  2824   0025D8  505A               	movf	lcd_4bit_set_cursor@ret^0,w,c
  2825   0025DA  0012               	return		;funcret
  2826   0025DC                     __end_of_lcd_4bit_set_cursor:
  2827                           	callstack 0
  2828                           
  2829 ;; *************** function _lcd_4bit_send_char_data *****************
  2830 ;; Defined at:
  2831 ;;		line 75 in file "mcal_layer/ecu_lcd.c"
  2832 ;; Parameters:    Size  Location     Type
  2833 ;;  lcd             2   15[COMRAM] PTR const struct .
  2834 ;;		 -> lcd_1(6), 
  2835 ;;  data            1   17[COMRAM] unsigned char 
  2836 ;; Auto vars:     Size  Location     Type
  2837 ;;  ret             1   19[COMRAM] unsigned char 
  2838 ;;  l_data_pins_    1   18[COMRAM] unsigned char 
  2839 ;; Return value:  Size  Location     Type
  2840 ;;                  1    wreg      unsigned char 
  2841 ;; Registers used:
  2842 ;;		wreg, fsr2l, fsr2h, status,2, status,0, prodl, prodh, cstack
  2843 ;; Tracked objects:
  2844 ;;		On entry : 0/0
  2845 ;;		On exit  : 0/0
  2846 ;;		Unchanged: 0/0
  2847 ;; Data sizes:     COMRAM   BANK0   BANK1   BANK2   BANK3   BANK4   BANK5   BANK6   BANK7   BANK8   BANK9  BANK10  BANK1
      +1  BANK12  BANK13  BANK14  BANK15
  2848 ;;      Params:         3       0       0       0       0       0       0       0       0       0       0       0       
      +0       0       0       0       0
  2849 ;;      Locals:         2       0       0       0       0       0       0       0       0       0       0       0       
      +0       0       0       0       0
  2850 ;;      Temps:          0       0       0       0       0       0       0       0       0       0       0       0       
      +0       0       0       0       0
  2851 ;;      Totals:         5       0       0       0       0       0       0       0       0       0       0       0       
      +0       0       0       0       0
  2852 ;;Total ram usage:        5 bytes
  2853 ;; Hardware stack levels used: 1
  2854 ;; Hardware stack levels required when called: 4
  2855 ;; This function calls:
  2856 ;;		_gpio_pin_write_logic
  2857 ;;		_lcd_4bit_send_enable_signal
  2858 ;;		_lcd_send_4bits
  2859 ;; This function is called by:
  2860 ;;		_lcd_4bit_send_char_data_pos
  2861 ;;		_lcd_4bit_send_string_pos
  2862 ;;		_lcd_4bit_send_string
  2863 ;;		_lcd_4bit_send_custom_char
  2864 ;; This function uses a non-reentrant model
  2865 ;;
  2866                           
  2867                           	psect	text7
  2868   002A88                     __ptext7:
  2869                           	callstack 0
  2870   002A88                     _lcd_4bit_send_char_data:
  2871                           	callstack 25
  2872   002A88                     
  2873                           ;mcal_layer/ecu_lcd.c: 78:      uint8 l_data_pins_counter = 0;
  2874   002A88  0E00               	movlw	0
  2875   002A8A  6E52               	movwf	lcd_4bit_send_char_data@l_data_pins_counter^0,c
  2876   002A8C                     
  2877                           ;mcal_layer/ecu_lcd.c: 80:     if(((void*)0) == lcd){
  2878   002A8C  504F               	movf	lcd_4bit_send_char_data@lcd^0,w,c
  2879   002A8E  1050               	iorwf	(lcd_4bit_send_char_data@lcd+1)^0,w,c
  2880   002A90  A4D8               	btfss	status,2,c
  2881   002A92  EF4D  F015         	goto	u6211
  2882   002A96  EF4F  F015         	goto	u6210
  2883   002A9A                     u6211:
  2884   002A9A  EF53  F015         	goto	l7563
  2885   002A9E                     u6210:
  2886   002A9E                     
  2887                           ;mcal_layer/ecu_lcd.c: 81:         ret = ( Std_returntype)0x00;
  2888   002A9E  0E00               	movlw	0
  2889   002AA0  6E53               	movwf	lcd_4bit_send_char_data@ret^0,c
  2890                           
  2891                           ;mcal_layer/ecu_lcd.c: 82:     }
  2892   002AA2  EF7D  F015         	goto	l7565
  2893   002AA6                     l7563:
  2894                           
  2895                           ;mcal_layer/ecu_lcd.c: 86:         ret = gpio_pin_write_logic(&(lcd->lcd_rs), HIGH);
  2896   002AA6  C04F  F041         	movff	lcd_4bit_send_char_data@lcd,gpio_pin_write_logic@pin_config
  2897   002AAA  C050  F042         	movff	lcd_4bit_send_char_data@lcd+1,gpio_pin_write_logic@pin_config+1
  2898   002AAE  0E01               	movlw	1
  2899   002AB0  6E43               	movwf	gpio_pin_write_logic@logic^0,c
  2900   002AB2  EC87  F010         	call	_gpio_pin_write_logic	;wreg free
  2901   002AB6  6E53               	movwf	lcd_4bit_send_char_data@ret^0,c
  2902                           
  2903                           ;mcal_layer/ecu_lcd.c: 88:         ret = lcd_send_4bits(lcd, data >> 4);
  2904   002AB8  C04F  F04B         	movff	lcd_4bit_send_char_data@lcd,lcd_send_4bits@lcd
  2905   002ABC  C050  F04C         	movff	lcd_4bit_send_char_data@lcd+1,lcd_send_4bits@lcd+1
  2906   002AC0  3851               	swapf	lcd_4bit_send_char_data@data^0,w,c
  2907   002AC2  0B0F               	andlw	15
  2908   002AC4  6E4D               	movwf	lcd_send_4bits@_data_command^0,c
  2909   002AC6  EC2A  F016         	call	_lcd_send_4bits	;wreg free
  2910   002ACA  6E53               	movwf	lcd_4bit_send_char_data@ret^0,c
  2911                           
  2912                           ;mcal_layer/ecu_lcd.c: 90:         ret = lcd_4bit_send_enable_signal(lcd);
  2913   002ACC  C04F  F04B         	movff	lcd_4bit_send_char_data@lcd,lcd_4bit_send_enable_signal@lcd
  2914   002AD0  C050  F04C         	movff	lcd_4bit_send_char_data@lcd+1,lcd_4bit_send_enable_signal@lcd+1
  2915   002AD4  ECAB  F017         	call	_lcd_4bit_send_enable_signal	;wreg free
  2916   002AD8  6E53               	movwf	lcd_4bit_send_char_data@ret^0,c
  2917                           
  2918                           ;mcal_layer/ecu_lcd.c: 92:         ret = lcd_send_4bits(lcd, data);
  2919   002ADA  C04F  F04B         	movff	lcd_4bit_send_char_data@lcd,lcd_send_4bits@lcd
  2920   002ADE  C050  F04C         	movff	lcd_4bit_send_char_data@lcd+1,lcd_send_4bits@lcd+1
  2921   002AE2  C051  F04D         	movff	lcd_4bit_send_char_data@data,lcd_send_4bits@_data_command
  2922   002AE6  EC2A  F016         	call	_lcd_send_4bits	;wreg free
  2923   002AEA  6E53               	movwf	lcd_4bit_send_char_data@ret^0,c
  2924                           
  2925                           ;mcal_layer/ecu_lcd.c: 94:         ret = lcd_4bit_send_enable_signal(lcd);
  2926   002AEC  C04F  F04B         	movff	lcd_4bit_send_char_data@lcd,lcd_4bit_send_enable_signal@lcd
  2927   002AF0  C050  F04C         	movff	lcd_4bit_send_char_data@lcd+1,lcd_4bit_send_enable_signal@lcd+1
  2928   002AF4  ECAB  F017         	call	_lcd_4bit_send_enable_signal	;wreg free
  2929   002AF8  6E53               	movwf	lcd_4bit_send_char_data@ret^0,c
  2930   002AFA                     l7565:
  2931                           
  2932                           ;mcal_layer/ecu_lcd.c: 97:     return ret;
  2933   002AFA  5053               	movf	lcd_4bit_send_char_data@ret^0,w,c
  2934   002AFC  0012               	return		;funcret
  2935   002AFE                     __end_of_lcd_4bit_send_char_data:
  2936                           	callstack 0
  2937                           
  2938 ;; *************** function _keypad_read_switch *****************
  2939 ;; Defined at:
  2940 ;;		line 70 in file "mcal_layer/ecu_keypad.c"
  2941 ;; Parameters:    Size  Location     Type
  2942 ;;  keypad          2   11[COMRAM] PTR const struct .
  2943 ;;		 -> keypad1(8), 
  2944 ;;  status          2   13[COMRAM] PTR unsigned char 
  2945 ;;		 -> key_value(1), 
  2946 ;; Auto vars:     Size  Location     Type
  2947 ;;  col             2   25[COMRAM] int 
  2948 ;;  i               2   20[COMRAM] int 
  2949 ;;  row             2   22[COMRAM] int 
  2950 ;;  status_pin      1   24[COMRAM] enum E2968
  2951 ;;  ret             1   19[COMRAM] unsigned char 
  2952 ;; Return value:  Size  Location     Type
  2953 ;;                  1    wreg      unsigned char 
  2954 ;; Registers used:
  2955 ;;		wreg, fsr2l, fsr2h, status,2, status,0, tblptrl, tblptrh, tblptru, prodl, prodh, cstack
  2956 ;; Tracked objects:
  2957 ;;		On entry : 0/0
  2958 ;;		On exit  : 0/0
  2959 ;;		Unchanged: 0/0
  2960 ;; Data sizes:     COMRAM   BANK0   BANK1   BANK2   BANK3   BANK4   BANK5   BANK6   BANK7   BANK8   BANK9  BANK10  BANK1
      +1  BANK12  BANK13  BANK14  BANK15
  2961 ;;      Params:         4       0       0       0       0       0       0       0       0       0       0       0       
      +0       0       0       0       0
  2962 ;;      Locals:         8       0       0       0       0       0       0       0       0       0       0       0       
      +0       0       0       0       0
  2963 ;;      Temps:          4       0       0       0       0       0       0       0       0       0       0       0       
      +0       0       0       0       0
  2964 ;;      Totals:        16       0       0       0       0       0       0       0       0       0       0       0       
      +0       0       0       0       0
  2965 ;;Total ram usage:       16 bytes
  2966 ;; Hardware stack levels used: 1
  2967 ;; Hardware stack levels required when called: 3
  2968 ;; This function calls:
  2969 ;;		_gpio_pin_read_logic
  2970 ;;		_gpio_pin_write_logic
  2971 ;; This function is called by:
  2972 ;;		_main
  2973 ;; This function uses a non-reentrant model
  2974 ;;
  2975                           
  2976                           	psect	text8
  2977   001E3A                     __ptext8:
  2978                           	callstack 0
  2979   001E3A                     _keypad_read_switch:
  2980                           	callstack 27
  2981   001E3A                     
  2982                           ;mcal_layer/ecu_keypad.c: 73:           logic_t status_pin=LOW;
  2983   001E3A  0E00               	movlw	0
  2984   001E3C  6E58               	movwf	keypad_read_switch@status_pin^0,c
  2985   001E3E                     
  2986                           ;mcal_layer/ecu_keypad.c: 75:           *status=(0xff);
  2987   001E3E  C04D  FFD9         	movff	keypad_read_switch@status,fsr2l
  2988   001E42  C04E  FFDA         	movff	keypad_read_switch@status+1,fsr2h
  2989   001E46  0EFF               	movlw	255
  2990   001E48  6EDF               	movwf	indf2,c
  2991   001E4A                     
  2992                           ;mcal_layer/ecu_keypad.c: 77:     if((((void*)0) == keypad)||(((void*)0) == status)){
  2993   001E4A  504B               	movf	keypad_read_switch@keypad^0,w,c
  2994   001E4C  104C               	iorwf	(keypad_read_switch@keypad+1)^0,w,c
  2995   001E4E  B4D8               	btfsc	status,2,c
  2996   001E50  EF2C  F00F         	goto	u6461
  2997   001E54  EF2E  F00F         	goto	u6460
  2998   001E58                     u6461:
  2999   001E58  EF37  F00F         	goto	l7857
  3000   001E5C                     u6460:
  3001   001E5C  504D               	movf	keypad_read_switch@status^0,w,c
  3002   001E5E  104E               	iorwf	(keypad_read_switch@status+1)^0,w,c
  3003   001E60  A4D8               	btfss	status,2,c
  3004   001E62  EF35  F00F         	goto	u6471
  3005   001E66  EF37  F00F         	goto	u6470
  3006   001E6A                     u6471:
  3007   001E6A  EF3B  F00F         	goto	l7859
  3008   001E6E                     u6470:
  3009   001E6E                     l7857:
  3010                           
  3011                           ;mcal_layer/ecu_keypad.c: 78:         ret = ( Std_returntype)0x00;
  3012   001E6E  0E00               	movlw	0
  3013   001E70  6E53               	movwf	keypad_read_switch@ret^0,c
  3014                           
  3015                           ;mcal_layer/ecu_keypad.c: 79:     }
  3016   001E72  EFE3  F00F         	goto	l7905
  3017   001E76                     l7859:
  3018                           
  3019                           ;mcal_layer/ecu_keypad.c: 81:         for(int row=0; row<4; row++)
  3020   001E76  0E00               	movlw	0
  3021   001E78  6E57               	movwf	(keypad_read_switch@row+1)^0,c
  3022   001E7A  0E00               	movlw	0
  3023   001E7C  6E56               	movwf	keypad_read_switch@row^0,c
  3024   001E7E                     l7865:
  3025                           
  3026                           ;mcal_layer/ecu_keypad.c: 82:         {;mcal_layer/ecu_keypad.c: 83:             for(int
      +                           i=0; i<4; i++)
  3027   001E7E  0E00               	movlw	0
  3028   001E80  6E55               	movwf	(keypad_read_switch@i+1)^0,c
  3029   001E82  0E00               	movlw	0
  3030   001E84  6E54               	movwf	keypad_read_switch@i^0,c
  3031   001E86                     l7871:
  3032   001E86  5054               	movf	keypad_read_switch@i^0,w,c
  3033   001E88  244B               	addwf	keypad_read_switch@keypad^0,w,c
  3034   001E8A  6E41               	movwf	gpio_pin_write_logic@pin_config^0,c
  3035   001E8C  5055               	movf	(keypad_read_switch@i+1)^0,w,c
  3036   001E8E  204C               	addwfc	(keypad_read_switch@keypad+1)^0,w,c
  3037   001E90  6E42               	movwf	(gpio_pin_write_logic@pin_config+1)^0,c
  3038   001E92  0E00               	movlw	0
  3039   001E94  6E43               	movwf	gpio_pin_write_logic@logic^0,c
  3040   001E96  EC87  F010         	call	_gpio_pin_write_logic	;wreg free
  3041   001E9A                     
  3042                           ;mcal_layer/ecu_keypad.c: 86:             }
  3043   001E9A  4A54               	infsnz	keypad_read_switch@i^0,f,c
  3044   001E9C  2A55               	incf	(keypad_read_switch@i+1)^0,f,c
  3045   001E9E  BE55               	btfsc	(keypad_read_switch@i+1)^0,7,c
  3046   001EA0  EF5B  F00F         	goto	u6481
  3047   001EA4  5055               	movf	(keypad_read_switch@i+1)^0,w,c
  3048   001EA6  E109               	bnz	u6480
  3049   001EA8  0E04               	movlw	4
  3050   001EAA  5C54               	subwf	keypad_read_switch@i^0,w,c
  3051   001EAC  A0D8               	btfss	status,0,c
  3052   001EAE  EF5B  F00F         	goto	u6481
  3053   001EB2  EF5D  F00F         	goto	u6480
  3054   001EB6                     u6481:
  3055   001EB6  EF43  F00F         	goto	l7871
  3056   001EBA                     u6480:
  3057   001EBA  5056               	movf	keypad_read_switch@row^0,w,c
  3058   001EBC  244B               	addwf	keypad_read_switch@keypad^0,w,c
  3059   001EBE  6E41               	movwf	gpio_pin_write_logic@pin_config^0,c
  3060   001EC0  5057               	movf	(keypad_read_switch@row+1)^0,w,c
  3061   001EC2  204C               	addwfc	(keypad_read_switch@keypad+1)^0,w,c
  3062   001EC4  6E42               	movwf	(gpio_pin_write_logic@pin_config+1)^0,c
  3063   001EC6  0E01               	movlw	1
  3064   001EC8  6E43               	movwf	gpio_pin_write_logic@logic^0,c
  3065   001ECA  EC87  F010         	call	_gpio_pin_write_logic	;wreg free
  3066   001ECE                     
  3067                           ;mcal_layer/ecu_keypad.c: 91:             for(int col=0; col<4; col++)
  3068   001ECE  0E00               	movlw	0
  3069   001ED0  6E5A               	movwf	(keypad_read_switch@col+1)^0,c
  3070   001ED2  0E00               	movlw	0
  3071   001ED4  6E59               	movwf	keypad_read_switch@col^0,c
  3072   001ED6                     l7885:
  3073                           
  3074                           ;mcal_layer/ecu_keypad.c: 92:             {;mcal_layer/ecu_keypad.c: 93:                
      +                           ret=gpio_pin_read_logic(&(keypad->keypad_columns_pins[col]),&status_pin);
  3075   001ED6  5059               	movf	keypad_read_switch@col^0,w,c
  3076   001ED8  244B               	addwf	keypad_read_switch@keypad^0,w,c
  3077   001EDA  6E4F               	movwf	??_keypad_read_switch^0,c
  3078   001EDC  505A               	movf	(keypad_read_switch@col+1)^0,w,c
  3079   001EDE  204C               	addwfc	(keypad_read_switch@keypad+1)^0,w,c
  3080   001EE0  6E50               	movwf	(??_keypad_read_switch+1)^0,c
  3081   001EE2  0E04               	movlw	4
  3082   001EE4  244F               	addwf	??_keypad_read_switch^0,w,c
  3083   001EE6  6E41               	movwf	gpio_pin_read_logic@pin_config^0,c
  3084   001EE8  0E00               	movlw	0
  3085   001EEA  2050               	addwfc	(??_keypad_read_switch+1)^0,w,c
  3086   001EEC  6E42               	movwf	(gpio_pin_read_logic@pin_config+1)^0,c
  3087   001EEE  0E58               	movlw	low keypad_read_switch@status_pin
  3088   001EF0  6E43               	movwf	gpio_pin_read_logic@logic^0,c
  3089   001EF2  0E00               	movlw	high keypad_read_switch@status_pin
  3090   001EF4  6E44               	movwf	(gpio_pin_read_logic@logic+1)^0,c
  3091   001EF6  EC3E  F012         	call	_gpio_pin_read_logic	;wreg free
  3092   001EFA  6E53               	movwf	keypad_read_switch@ret^0,c
  3093   001EFC                     
  3094                           ;mcal_layer/ecu_keypad.c: 94:                 if(status_pin == HIGH)
  3095   001EFC  0458               	decf	keypad_read_switch@status_pin^0,w,c
  3096   001EFE  A4D8               	btfss	status,2,c
  3097   001F00  EF84  F00F         	goto	u6491
  3098   001F04  EF86  F00F         	goto	u6490
  3099   001F08                     u6491:
  3100   001F08  EFC3  F00F         	goto	l7897
  3101   001F0C                     u6490:
  3102   001F0C  EF9B  F00F         	goto	l7893
  3103   001F10                     l7891:
  3104                           
  3105                           ;mcal_layer/ecu_keypad.c: 97:                      {;mcal_layer/ecu_keypad.c: 98:       
      +                                              ret=gpio_pin_read_logic(&(keypad->keypad_columns_pins[col]),&status_
      +                          pin);
  3106   001F10  5059               	movf	keypad_read_switch@col^0,w,c
  3107   001F12  244B               	addwf	keypad_read_switch@keypad^0,w,c
  3108   001F14  6E4F               	movwf	??_keypad_read_switch^0,c
  3109   001F16  505A               	movf	(keypad_read_switch@col+1)^0,w,c
  3110   001F18  204C               	addwfc	(keypad_read_switch@keypad+1)^0,w,c
  3111   001F1A  6E50               	movwf	(??_keypad_read_switch+1)^0,c
  3112   001F1C  0E04               	movlw	4
  3113   001F1E  244F               	addwf	??_keypad_read_switch^0,w,c
  3114   001F20  6E41               	movwf	gpio_pin_read_logic@pin_config^0,c
  3115   001F22  0E00               	movlw	0
  3116   001F24  2050               	addwfc	(??_keypad_read_switch+1)^0,w,c
  3117   001F26  6E42               	movwf	(gpio_pin_read_logic@pin_config+1)^0,c
  3118   001F28  0E58               	movlw	low keypad_read_switch@status_pin
  3119   001F2A  6E43               	movwf	gpio_pin_read_logic@logic^0,c
  3120   001F2C  0E00               	movlw	high keypad_read_switch@status_pin
  3121   001F2E  6E44               	movwf	(gpio_pin_read_logic@logic+1)^0,c
  3122   001F30  EC3E  F012         	call	_gpio_pin_read_logic	;wreg free
  3123   001F34  6E53               	movwf	keypad_read_switch@ret^0,c
  3124   001F36                     l7893:
  3125                           
  3126                           ;mcal_layer/ecu_keypad.c: 96:                      while(status_pin == 1)
  3127   001F36  0458               	decf	keypad_read_switch@status_pin^0,w,c
  3128   001F38  B4D8               	btfsc	status,2,c
  3129   001F3A  EFA1  F00F         	goto	u6501
  3130   001F3E  EFA3  F00F         	goto	u6500
  3131   001F42                     u6501:
  3132   001F42  EF88  F00F         	goto	l7891
  3133   001F46                     u6500:
  3134   001F46                     
  3135                           ;mcal_layer/ecu_keypad.c: 100:                     *status=btn_values[row][col];
  3136   001F46  C056  F04F         	movff	keypad_read_switch@row,??_keypad_read_switch
  3137   001F4A  C057  F050         	movff	keypad_read_switch@row+1,??_keypad_read_switch+1
  3138   001F4E  90D8               	bcf	status,0,c
  3139   001F50  364F               	rlcf	??_keypad_read_switch^0,f,c
  3140   001F52  3650               	rlcf	(??_keypad_read_switch+1)^0,f,c
  3141   001F54  90D8               	bcf	status,0,c
  3142   001F56  364F               	rlcf	??_keypad_read_switch^0,f,c
  3143   001F58  3650               	rlcf	(??_keypad_read_switch+1)^0,f,c
  3144   001F5A  0E01               	movlw	low _btn_values
  3145   001F5C  244F               	addwf	??_keypad_read_switch^0,w,c
  3146   001F5E  6E51               	movwf	(??_keypad_read_switch+2)^0,c
  3147   001F60  0E10               	movlw	high _btn_values
  3148   001F62  2050               	addwfc	(??_keypad_read_switch+1)^0,w,c
  3149   001F64  6E52               	movwf	(??_keypad_read_switch+3)^0,c
  3150   001F66  5059               	movf	keypad_read_switch@col^0,w,c
  3151   001F68  2651               	addwf	(??_keypad_read_switch+2)^0,f,c
  3152   001F6A  505A               	movf	(keypad_read_switch@col+1)^0,w,c
  3153   001F6C  2252               	addwfc	(??_keypad_read_switch+3)^0,f,c
  3154   001F6E  C051  FFF6         	movff	??_keypad_read_switch+2,tblptrl
  3155   001F72  C052  FFF7         	movff	??_keypad_read_switch+3,tblptrh
  3156   001F76                     	if	1	;Program memory is < 0x10000, tblptru is always zero
  3157   001F76  6AF8               	clrf	tblptru,c
  3158   001F78                     	endif
  3159   001F78                     	if	0	;tblptru may be non-zero
  3160   001F78                     	endif
  3161   001F78  C04D  FFD9         	movff	keypad_read_switch@status,fsr2l
  3162   001F7C  C04E  FFDA         	movff	keypad_read_switch@status+1,fsr2h
  3163   001F80  0008               	tblrd		*
  3164   001F82  CFF5 FFDF          	movff	tablat,indf2
  3165   001F86                     l7897:
  3166                           
  3167                           ;mcal_layer/ecu_keypad.c: 104:             }
  3168   001F86  4A59               	infsnz	keypad_read_switch@col^0,f,c
  3169   001F88  2A5A               	incf	(keypad_read_switch@col+1)^0,f,c
  3170   001F8A  BE5A               	btfsc	(keypad_read_switch@col+1)^0,7,c
  3171   001F8C  EFD1  F00F         	goto	u6511
  3172   001F90  505A               	movf	(keypad_read_switch@col+1)^0,w,c
  3173   001F92  E109               	bnz	u6510
  3174   001F94  0E04               	movlw	4
  3175   001F96  5C59               	subwf	keypad_read_switch@col^0,w,c
  3176   001F98  A0D8               	btfss	status,0,c
  3177   001F9A  EFD1  F00F         	goto	u6511
  3178   001F9E  EFD3  F00F         	goto	u6510
  3179   001FA2                     u6511:
  3180   001FA2  EF6B  F00F         	goto	l7885
  3181   001FA6                     u6510:
  3182   001FA6                     
  3183                           ;mcal_layer/ecu_keypad.c: 108:         }
  3184   001FA6  4A56               	infsnz	keypad_read_switch@row^0,f,c
  3185   001FA8  2A57               	incf	(keypad_read_switch@row+1)^0,f,c
  3186   001FAA  BE57               	btfsc	(keypad_read_switch@row+1)^0,7,c
  3187   001FAC  EFE1  F00F         	goto	u6521
  3188   001FB0  5057               	movf	(keypad_read_switch@row+1)^0,w,c
  3189   001FB2  E109               	bnz	u6520
  3190   001FB4  0E04               	movlw	4
  3191   001FB6  5C56               	subwf	keypad_read_switch@row^0,w,c
  3192   001FB8  A0D8               	btfss	status,0,c
  3193   001FBA  EFE1  F00F         	goto	u6521
  3194   001FBE  EFE3  F00F         	goto	u6520
  3195   001FC2                     u6521:
  3196   001FC2  EF3F  F00F         	goto	l7865
  3197   001FC6                     u6520:
  3198   001FC6                     l7905:
  3199                           
  3200                           ;mcal_layer/ecu_keypad.c: 112:     return ret;
  3201   001FC6  5053               	movf	keypad_read_switch@ret^0,w,c
  3202   001FC8  0012               	return		;funcret
  3203   001FCA                     __end_of_keypad_read_switch:
  3204                           	callstack 0
  3205                           
  3206 ;; *************** function _keypad_get_value_blocking *****************
  3207 ;; Defined at:
  3208 ;;		line 120 in file "mcal_layer/ecu_keypad.c"
  3209 ;; Parameters:    Size  Location     Type
  3210 ;;  _keypad_obj     2   11[COMRAM] PTR const struct .
  3211 ;;		 -> keypad1(8), 
  3212 ;;  value           2   13[COMRAM] PTR unsigned char 
  3213 ;;		 -> value32(1), value31(1), value22(1), value21(1), 
  3214 ;;		 -> value12(1), value11(1), 
  3215 ;; Auto vars:     Size  Location     Type
  3216 ;;  l_columns_co    1   27[COMRAM] unsigned char 
  3217 ;;  l_rows_count    1   26[COMRAM] unsigned char 
  3218 ;;  l_counter       1   25[COMRAM] unsigned char 
  3219 ;;  column_logic    1   24[COMRAM] unsigned char 
  3220 ;;  ret             1    0        unsigned char 
  3221 ;; Return value:  Size  Location     Type
  3222 ;;                  1    wreg      unsigned char 
  3223 ;; Registers used:
  3224 ;;		wreg, fsr2l, fsr2h, status,2, status,0, tblptrl, tblptrh, tblptru, prodl, prodh, cstack
  3225 ;; Tracked objects:
  3226 ;;		On entry : 0/0
  3227 ;;		On exit  : 0/0
  3228 ;;		Unchanged: 0/0
  3229 ;; Data sizes:     COMRAM   BANK0   BANK1   BANK2   BANK3   BANK4   BANK5   BANK6   BANK7   BANK8   BANK9  BANK10  BANK1
      +1  BANK12  BANK13  BANK14  BANK15
  3230 ;;      Params:         4       0       0       0       0       0       0       0       0       0       0       0       
      +0       0       0       0       0
  3231 ;;      Locals:         4       0       0       0       0       0       0       0       0       0       0       0       
      +0       0       0       0       0
  3232 ;;      Temps:          9       0       0       0       0       0       0       0       0       0       0       0       
      +0       0       0       0       0
  3233 ;;      Totals:        17       0       0       0       0       0       0       0       0       0       0       0       
      +0       0       0       0       0
  3234 ;;Total ram usage:       17 bytes
  3235 ;; Hardware stack levels used: 1
  3236 ;; Hardware stack levels required when called: 3
  3237 ;; This function calls:
  3238 ;;		_gpio_pin_read_logic
  3239 ;;		_gpio_pin_write_logic
  3240 ;; This function is called by:
  3241 ;;		_main
  3242 ;; This function uses a non-reentrant model
  3243 ;;
  3244                           
  3245                           	psect	text9
  3246   001C24                     __ptext9:
  3247                           	callstack 0
  3248   001C24                     _keypad_get_value_blocking:
  3249                           	callstack 27
  3250   001C24                     
  3251                           ;mcal_layer/ecu_keypad.c: 122:     uint8 l_rows_counter = 0, l_columns_counter = 0, l_co
      +                          unter = 0;
  3252   001C24  0E00               	movlw	0
  3253   001C26  6E5A               	movwf	keypad_get_value_blocking@l_rows_counter^0,c
  3254   001C28  0E00               	movlw	0
  3255   001C2A  6E5B               	movwf	keypad_get_value_blocking@l_columns_counter^0,c
  3256   001C2C  0E00               	movlw	0
  3257   001C2E  6E59               	movwf	keypad_get_value_blocking@l_counter^0,c
  3258                           
  3259                           ;mcal_layer/ecu_keypad.c: 123:     uint8 column_logic = 0;
  3260   001C30  0E00               	movlw	0
  3261   001C32  6E58               	movwf	keypad_get_value_blocking@column_logic^0,c
  3262   001C34                     
  3263                           ;mcal_layer/ecu_keypad.c: 124:     if((((void*)0) == _keypad_obj) || (((void*)0) == valu
      +                          e)){
  3264   001C34  504B               	movf	keypad_get_value_blocking@_keypad_obj^0,w,c
  3265   001C36  104C               	iorwf	(keypad_get_value_blocking@_keypad_obj+1)^0,w,c
  3266   001C38  B4D8               	btfsc	status,2,c
  3267   001C3A  EF21  F00E         	goto	u6531
  3268   001C3E  EF23  F00E         	goto	u6530
  3269   001C42                     u6531:
  3270   001C42  EF2C  F00E         	goto	l7915
  3271   001C46                     u6530:
  3272   001C46  504D               	movf	keypad_get_value_blocking@value^0,w,c
  3273   001C48  104E               	iorwf	(keypad_get_value_blocking@value+1)^0,w,c
  3274   001C4A  A4D8               	btfss	status,2,c
  3275   001C4C  EF2A  F00E         	goto	u6541
  3276   001C50  EF2C  F00E         	goto	u6540
  3277   001C54                     u6541:
  3278   001C54  EF2F  F00E         	goto	l7921
  3279   001C58                     u6540:
  3280   001C58                     l7915:
  3281                           
  3282                           ;mcal_layer/ecu_keypad.c: 125:         return ( Std_returntype)0x00;
  3283   001C58  0E00               	movlw	0
  3284   001C5A  EF1C  F00F         	goto	l310
  3285   001C5E                     l7921:
  3286                           
  3287                           ;mcal_layer/ecu_keypad.c: 129:             for(l_rows_counter=0; l_rows_counter<4; l_row
      +                          s_counter++){
  3288   001C5E  0E00               	movlw	0
  3289   001C60  6E5A               	movwf	keypad_get_value_blocking@l_rows_counter^0,c
  3290   001C62                     l7927:
  3291                           
  3292                           ;mcal_layer/ecu_keypad.c: 130:                 for(l_counter=0; l_counter<4; l_counter++
      +                          ){
  3293   001C62  0E00               	movlw	0
  3294   001C64  6E59               	movwf	keypad_get_value_blocking@l_counter^0,c
  3295   001C66                     l7933:
  3296   001C66  5059               	movf	keypad_get_value_blocking@l_counter^0,w,c
  3297   001C68  244B               	addwf	keypad_get_value_blocking@_keypad_obj^0,w,c
  3298   001C6A  6E41               	movwf	gpio_pin_write_logic@pin_config^0,c
  3299   001C6C  0E00               	movlw	0
  3300   001C6E  204C               	addwfc	(keypad_get_value_blocking@_keypad_obj+1)^0,w,c
  3301   001C70  6E42               	movwf	(gpio_pin_write_logic@pin_config+1)^0,c
  3302   001C72  0E00               	movlw	0
  3303   001C74  6E43               	movwf	gpio_pin_write_logic@logic^0,c
  3304   001C76  EC87  F010         	call	_gpio_pin_write_logic	;wreg free
  3305   001C7A                     
  3306                           ;mcal_layer/ecu_keypad.c: 132:                 }
  3307   001C7A  2A59               	incf	keypad_get_value_blocking@l_counter^0,f,c
  3308   001C7C  0E03               	movlw	3
  3309   001C7E  6459               	cpfsgt	keypad_get_value_blocking@l_counter^0,c
  3310   001C80  EF44  F00E         	goto	u6551
  3311   001C84  EF46  F00E         	goto	u6550
  3312   001C88                     u6551:
  3313   001C88  EF33  F00E         	goto	l7933
  3314   001C8C                     u6550:
  3315   001C8C                     
  3316                           ;mcal_layer/ecu_keypad.c: 133:                 gpio_pin_write_logic(&(_keypad_obj->keypa
      +                          d_row_pins[l_rows_counter]), HIGH);
  3317   001C8C  505A               	movf	keypad_get_value_blocking@l_rows_counter^0,w,c
  3318   001C8E  244B               	addwf	keypad_get_value_blocking@_keypad_obj^0,w,c
  3319   001C90  6E41               	movwf	gpio_pin_write_logic@pin_config^0,c
  3320   001C92  0E00               	movlw	0
  3321   001C94  204C               	addwfc	(keypad_get_value_blocking@_keypad_obj+1)^0,w,c
  3322   001C96  6E42               	movwf	(gpio_pin_write_logic@pin_config+1)^0,c
  3323   001C98  0E01               	movlw	1
  3324   001C9A  6E43               	movwf	gpio_pin_write_logic@logic^0,c
  3325   001C9C  EC87  F010         	call	_gpio_pin_write_logic	;wreg free
  3326   001CA0                     
  3327                           ;mcal_layer/ecu_keypad.c: 134:                 _delay((unsigned long)((10)*(4000000/4000
      +                          .0)));
  3328   001CA0  0E0D               	movlw	13
  3329   001CA2  6E4F               	movwf	??_keypad_get_value_blocking^0,c
  3330   001CA4  0EFC               	movlw	252
  3331   001CA6                     u7407:
  3332   001CA6  2EE8               	decfsz	wreg,f,c
  3333   001CA8  D7FE               	bra	u7407
  3334   001CAA  2E4F               	decfsz	??_keypad_get_value_blocking^0,f,c
  3335   001CAC  D7FC               	bra	u7407
  3336   001CAE                     
  3337                           ;mcal_layer/ecu_keypad.c: 135:                 for(l_columns_counter=0; l_columns_counte
      +                          r<4; l_columns_counter++){
  3338   001CAE  0E00               	movlw	0
  3339   001CB0  6E5B               	movwf	keypad_get_value_blocking@l_columns_counter^0,c
  3340   001CB2                     l7949:
  3341   001CB2  505B               	movf	keypad_get_value_blocking@l_columns_counter^0,w,c
  3342   001CB4  244B               	addwf	keypad_get_value_blocking@_keypad_obj^0,w,c
  3343   001CB6  6E4F               	movwf	??_keypad_get_value_blocking^0,c
  3344   001CB8  0E00               	movlw	0
  3345   001CBA  204C               	addwfc	(keypad_get_value_blocking@_keypad_obj+1)^0,w,c
  3346   001CBC  6E50               	movwf	(??_keypad_get_value_blocking+1)^0,c
  3347   001CBE  0E04               	movlw	4
  3348   001CC0  244F               	addwf	??_keypad_get_value_blocking^0,w,c
  3349   001CC2  6E41               	movwf	gpio_pin_read_logic@pin_config^0,c
  3350   001CC4  0E00               	movlw	0
  3351   001CC6  2050               	addwfc	(??_keypad_get_value_blocking+1)^0,w,c
  3352   001CC8  6E42               	movwf	(gpio_pin_read_logic@pin_config+1)^0,c
  3353   001CCA  0E58               	movlw	low keypad_get_value_blocking@column_logic
  3354   001CCC  6E43               	movwf	gpio_pin_read_logic@logic^0,c
  3355   001CCE  0E00               	movlw	high keypad_get_value_blocking@column_logic
  3356   001CD0  6E44               	movwf	(gpio_pin_read_logic@logic+1)^0,c
  3357   001CD2  EC3E  F012         	call	_gpio_pin_read_logic	;wreg free
  3358   001CD6                     
  3359                           ;mcal_layer/ecu_keypad.c: 137:                     if(HIGH == ((*port_registers[_keypad_
      +                          obj->keypad_columns_pins[l_columns_counter].port]>>_keypad_obj->keypad_columns_pins[l_co
      +                          lumns_counter].pin) & 1 ) ){
  3360   001CD6  505B               	movf	keypad_get_value_blocking@l_columns_counter^0,w,c
  3361   001CD8  244B               	addwf	keypad_get_value_blocking@_keypad_obj^0,w,c
  3362   001CDA  6E4F               	movwf	??_keypad_get_value_blocking^0,c
  3363   001CDC  0E00               	movlw	0
  3364   001CDE  204C               	addwfc	(keypad_get_value_blocking@_keypad_obj+1)^0,w,c
  3365   001CE0  6E50               	movwf	(??_keypad_get_value_blocking+1)^0,c
  3366   001CE2  0E04               	movlw	4
  3367   001CE4  244F               	addwf	??_keypad_get_value_blocking^0,w,c
  3368   001CE6  6ED9               	movwf	fsr2l,c
  3369   001CE8  0E00               	movlw	0
  3370   001CEA  2050               	addwfc	(??_keypad_get_value_blocking+1)^0,w,c
  3371   001CEC  6EDA               	movwf	fsr2h,c
  3372   001CEE  30DF               	rrcf	223,w,c
  3373   001CF0  32E8               	rrcf	wreg,f,c
  3374   001CF2  32E8               	rrcf	wreg,f,c
  3375   001CF4  0B07               	andlw	7
  3376   001CF6  6E51               	movwf	(??_keypad_get_value_blocking+2)^0,c
  3377   001CF8  505B               	movf	keypad_get_value_blocking@l_columns_counter^0,w,c
  3378   001CFA  244B               	addwf	keypad_get_value_blocking@_keypad_obj^0,w,c
  3379   001CFC  6E52               	movwf	(??_keypad_get_value_blocking+3)^0,c
  3380   001CFE  0E00               	movlw	0
  3381   001D00  204C               	addwfc	(keypad_get_value_blocking@_keypad_obj+1)^0,w,c
  3382   001D02  6E53               	movwf	(??_keypad_get_value_blocking+4)^0,c
  3383   001D04  0E04               	movlw	4
  3384   001D06  2452               	addwf	(??_keypad_get_value_blocking+3)^0,w,c
  3385   001D08  6ED9               	movwf	fsr2l,c
  3386   001D0A  0E00               	movlw	0
  3387   001D0C  2053               	addwfc	(??_keypad_get_value_blocking+4)^0,w,c
  3388   001D0E  6EDA               	movwf	fsr2h,c
  3389   001D10  50DF               	movf	223,w,c
  3390   001D12  0B07               	andlw	7
  3391   001D14  6E54               	movwf	(??_keypad_get_value_blocking+5)^0,c
  3392   001D16  5054               	movf	(??_keypad_get_value_blocking+5)^0,w,c
  3393   001D18  0D02               	mullw	2
  3394   001D1A  0E9E               	movlw	low _port_registers
  3395   001D1C  24F3               	addwf	243,w,c
  3396   001D1E  6ED9               	movwf	fsr2l,c
  3397   001D20  0E00               	movlw	high _port_registers
  3398   001D22  20F4               	addwfc	prodh,w,c
  3399   001D24  6EDA               	movwf	fsr2h,c
  3400   001D26  CFDE F055          	movff	postinc2,??_keypad_get_value_blocking+6
  3401   001D2A  CFDD F056          	movff	postdec2,??_keypad_get_value_blocking+7
  3402   001D2E  C055  FFD9         	movff	??_keypad_get_value_blocking+6,fsr2l
  3403   001D32  C056  FFDA         	movff	??_keypad_get_value_blocking+7,fsr2h
  3404   001D36  50DF               	movf	indf2,w,c
  3405   001D38  6E57               	movwf	(??_keypad_get_value_blocking+8)^0,c
  3406   001D3A  2A51               	incf	(??_keypad_get_value_blocking+2)^0,f,c
  3407   001D3C  EFA2  F00E         	goto	u6564
  3408   001D40                     u6565:
  3409   001D40  90D8               	bcf	status,0,c
  3410   001D42  3257               	rrcf	(??_keypad_get_value_blocking+8)^0,f,c
  3411   001D44                     u6564:
  3412   001D44  2E51               	decfsz	(??_keypad_get_value_blocking+2)^0,f,c
  3413   001D46  EFA0  F00E         	goto	u6565
  3414   001D4A  A057               	btfss	(??_keypad_get_value_blocking+8)^0,0,c
  3415   001D4C  EFAA  F00E         	goto	u6571
  3416   001D50  EFAC  F00E         	goto	u6570
  3417   001D54                     u6571:
  3418   001D54  EF08  F00F         	goto	l7963
  3419   001D58                     u6570:
  3420   001D58                     l7955:
  3421   001D58  505B               	movf	keypad_get_value_blocking@l_columns_counter^0,w,c
  3422   001D5A  244B               	addwf	keypad_get_value_blocking@_keypad_obj^0,w,c
  3423   001D5C  6E4F               	movwf	??_keypad_get_value_blocking^0,c
  3424   001D5E  0E00               	movlw	0
  3425   001D60  204C               	addwfc	(keypad_get_value_blocking@_keypad_obj+1)^0,w,c
  3426   001D62  6E50               	movwf	(??_keypad_get_value_blocking+1)^0,c
  3427   001D64  0E04               	movlw	4
  3428   001D66  244F               	addwf	??_keypad_get_value_blocking^0,w,c
  3429   001D68  6ED9               	movwf	fsr2l,c
  3430   001D6A  0E00               	movlw	0
  3431   001D6C  2050               	addwfc	(??_keypad_get_value_blocking+1)^0,w,c
  3432   001D6E  6EDA               	movwf	fsr2h,c
  3433   001D70  30DF               	rrcf	223,w,c
  3434   001D72  32E8               	rrcf	wreg,f,c
  3435   001D74  32E8               	rrcf	wreg,f,c
  3436   001D76  0B07               	andlw	7
  3437   001D78  6E51               	movwf	(??_keypad_get_value_blocking+2)^0,c
  3438   001D7A  505B               	movf	keypad_get_value_blocking@l_columns_counter^0,w,c
  3439   001D7C  244B               	addwf	keypad_get_value_blocking@_keypad_obj^0,w,c
  3440   001D7E  6E52               	movwf	(??_keypad_get_value_blocking+3)^0,c
  3441   001D80  0E00               	movlw	0
  3442   001D82  204C               	addwfc	(keypad_get_value_blocking@_keypad_obj+1)^0,w,c
  3443   001D84  6E53               	movwf	(??_keypad_get_value_blocking+4)^0,c
  3444   001D86  0E04               	movlw	4
  3445   001D88  2452               	addwf	(??_keypad_get_value_blocking+3)^0,w,c
  3446   001D8A  6ED9               	movwf	fsr2l,c
  3447   001D8C  0E00               	movlw	0
  3448   001D8E  2053               	addwfc	(??_keypad_get_value_blocking+4)^0,w,c
  3449   001D90  6EDA               	movwf	fsr2h,c
  3450   001D92  50DF               	movf	223,w,c
  3451   001D94  0B07               	andlw	7
  3452   001D96  6E54               	movwf	(??_keypad_get_value_blocking+5)^0,c
  3453   001D98  5054               	movf	(??_keypad_get_value_blocking+5)^0,w,c
  3454   001D9A  0D02               	mullw	2
  3455   001D9C  0E9E               	movlw	low _port_registers
  3456   001D9E  24F3               	addwf	243,w,c
  3457   001DA0  6ED9               	movwf	fsr2l,c
  3458   001DA2  0E00               	movlw	high _port_registers
  3459   001DA4  20F4               	addwfc	prodh,w,c
  3460   001DA6  6EDA               	movwf	fsr2h,c
  3461   001DA8  CFDE F055          	movff	postinc2,??_keypad_get_value_blocking+6
  3462   001DAC  CFDD F056          	movff	postdec2,??_keypad_get_value_blocking+7
  3463   001DB0  C055  FFD9         	movff	??_keypad_get_value_blocking+6,fsr2l
  3464   001DB4  C056  FFDA         	movff	??_keypad_get_value_blocking+7,fsr2h
  3465   001DB8  50DF               	movf	indf2,w,c
  3466   001DBA  6E57               	movwf	(??_keypad_get_value_blocking+8)^0,c
  3467   001DBC  2A51               	incf	(??_keypad_get_value_blocking+2)^0,f,c
  3468   001DBE  EFE3  F00E         	goto	u6584
  3469   001DC2                     u6585:
  3470   001DC2  90D8               	bcf	status,0,c
  3471   001DC4  3257               	rrcf	(??_keypad_get_value_blocking+8)^0,f,c
  3472   001DC6                     u6584:
  3473   001DC6  2E51               	decfsz	(??_keypad_get_value_blocking+2)^0,f,c
  3474   001DC8  EFE1  F00E         	goto	u6585
  3475   001DCC  B057               	btfsc	(??_keypad_get_value_blocking+8)^0,0,c
  3476   001DCE  EFEB  F00E         	goto	u6591
  3477   001DD2  EFED  F00E         	goto	u6590
  3478   001DD6                     u6591:
  3479   001DD6  EFAC  F00E         	goto	l7955
  3480   001DDA                     u6590:
  3481   001DDA                     
  3482                           ;mcal_layer/ecu_keypad.c: 139:                         *value = btn_values[l_rows_counte
      +                          r][l_columns_counter];
  3483   001DDA  505A               	movf	keypad_get_value_blocking@l_rows_counter^0,w,c
  3484   001DDC  0D04               	mullw	4
  3485   001DDE  0E01               	movlw	low _btn_values
  3486   001DE0  24F3               	addwf	243,w,c
  3487   001DE2  6E4F               	movwf	??_keypad_get_value_blocking^0,c
  3488   001DE4  0E10               	movlw	high _btn_values
  3489   001DE6  20F4               	addwfc	prodh,w,c
  3490   001DE8  6E50               	movwf	(??_keypad_get_value_blocking+1)^0,c
  3491   001DEA  505B               	movf	keypad_get_value_blocking@l_columns_counter^0,w,c
  3492   001DEC  264F               	addwf	??_keypad_get_value_blocking^0,f,c
  3493   001DEE  0E00               	movlw	0
  3494   001DF0  2250               	addwfc	(??_keypad_get_value_blocking+1)^0,f,c
  3495   001DF2  C04F  FFF6         	movff	??_keypad_get_value_blocking,tblptrl
  3496   001DF6  C050  FFF7         	movff	??_keypad_get_value_blocking+1,tblptrh
  3497   001DFA                     	if	1	;Program memory is < 0x10000, tblptru is always zero
  3498   001DFA  6AF8               	clrf	tblptru,c
  3499   001DFC                     	endif
  3500   001DFC                     	if	0	;tblptru may be non-zero
  3501   001DFC                     	endif
  3502   001DFC  C04D  FFD9         	movff	keypad_get_value_blocking@value,fsr2l
  3503   001E00  C04E  FFDA         	movff	keypad_get_value_blocking@value+1,fsr2h
  3504   001E04  0008               	tblrd		*
  3505   001E06  CFF5 FFDF          	movff	tablat,indf2
  3506   001E0A                     
  3507                           ;mcal_layer/ecu_keypad.c: 140:                         return ( Std_returntype)0x01 ;
  3508   001E0A  0E01               	movlw	1
  3509   001E0C  EF1C  F00F         	goto	l310
  3510   001E10                     l7963:
  3511                           
  3512                           ;mcal_layer/ecu_keypad.c: 142:                 }
  3513   001E10  2A5B               	incf	keypad_get_value_blocking@l_columns_counter^0,f,c
  3514   001E12  0E03               	movlw	3
  3515   001E14  645B               	cpfsgt	keypad_get_value_blocking@l_columns_counter^0,c
  3516   001E16  EF0F  F00F         	goto	u6601
  3517   001E1A  EF11  F00F         	goto	u6600
  3518   001E1E                     u6601:
  3519   001E1E  EF59  F00E         	goto	l7949
  3520   001E22                     u6600:
  3521   001E22                     
  3522                           ;mcal_layer/ecu_keypad.c: 143:             }
  3523   001E22  2A5A               	incf	keypad_get_value_blocking@l_rows_counter^0,f,c
  3524   001E24  0E03               	movlw	3
  3525   001E26  645A               	cpfsgt	keypad_get_value_blocking@l_rows_counter^0,c
  3526   001E28  EF18  F00F         	goto	u6611
  3527   001E2C  EF1A  F00F         	goto	u6610
  3528   001E30                     u6611:
  3529   001E30  EF31  F00E         	goto	l7927
  3530   001E34                     u6610:
  3531   001E34  EF2F  F00E         	goto	l7921
  3532   001E38                     l310:
  3533   001E38  0012               	return		;funcret
  3534   001E3A                     __end_of_keypad_get_value_blocking:
  3535                           	callstack 0
  3536                           
  3537 ;; *************** function _keypad_get_value *****************
  3538 ;; Defined at:
  3539 ;;		line 42 in file "mcal_layer/ecu_keypad.c"
  3540 ;; Parameters:    Size  Location     Type
  3541 ;;  _keypad_obj     2   11[COMRAM] PTR const struct .
  3542 ;;		 -> keypad1(8), 
  3543 ;;  value           2   13[COMRAM] PTR unsigned char 
  3544 ;;		 -> key_value(1), 
  3545 ;; Auto vars:     Size  Location     Type
  3546 ;;  l_columns_co    1   21[COMRAM] unsigned char 
  3547 ;;  l_rows_count    1   20[COMRAM] unsigned char 
  3548 ;;  l_counter       1   19[COMRAM] unsigned char 
  3549 ;;  column_logic    1   18[COMRAM] unsigned char 
  3550 ;;  ret             1   17[COMRAM] unsigned char 
  3551 ;; Return value:  Size  Location     Type
  3552 ;;                  1    wreg      unsigned char 
  3553 ;; Registers used:
  3554 ;;		wreg, fsr2l, fsr2h, status,2, status,0, tblptrl, tblptrh, tblptru, prodl, prodh, cstack
  3555 ;; Tracked objects:
  3556 ;;		On entry : 0/0
  3557 ;;		On exit  : 0/0
  3558 ;;		Unchanged: 0/0
  3559 ;; Data sizes:     COMRAM   BANK0   BANK1   BANK2   BANK3   BANK4   BANK5   BANK6   BANK7   BANK8   BANK9  BANK10  BANK1
      +1  BANK12  BANK13  BANK14  BANK15
  3560 ;;      Params:         4       0       0       0       0       0       0       0       0       0       0       0       
      +0       0       0       0       0
  3561 ;;      Locals:         5       0       0       0       0       0       0       0       0       0       0       0       
      +0       0       0       0       0
  3562 ;;      Temps:          2       0       0       0       0       0       0       0       0       0       0       0       
      +0       0       0       0       0
  3563 ;;      Totals:        11       0       0       0       0       0       0       0       0       0       0       0       
      +0       0       0       0       0
  3564 ;;Total ram usage:       11 bytes
  3565 ;; Hardware stack levels used: 1
  3566 ;; Hardware stack levels required when called: 3
  3567 ;; This function calls:
  3568 ;;		_gpio_pin_read_logic
  3569 ;;		_gpio_pin_write_logic
  3570 ;; This function is called by:
  3571 ;;		_main
  3572 ;; This function uses a non-reentrant model
  3573 ;;
  3574                           
  3575                           	psect	text10
  3576   002364                     __ptext10:
  3577                           	callstack 0
  3578   002364                     _keypad_get_value:
  3579                           	callstack 27
  3580   002364                     
  3581                           ;mcal_layer/ecu_keypad.c: 44:     uint8 l_rows_counter = 0, l_columns_counter = 0, l_cou
      +                          nter = 0;
  3582   002364  0E00               	movlw	0
  3583   002366  6E54               	movwf	keypad_get_value@l_rows_counter^0,c
  3584   002368  0E00               	movlw	0
  3585   00236A  6E55               	movwf	keypad_get_value@l_columns_counter^0,c
  3586   00236C  0E00               	movlw	0
  3587   00236E  6E53               	movwf	keypad_get_value@l_counter^0,c
  3588                           
  3589                           ;mcal_layer/ecu_keypad.c: 45:     uint8 column_logic = 0;
  3590   002370  0E00               	movlw	0
  3591   002372  6E52               	movwf	keypad_get_value@column_logic^0,c
  3592   002374                     
  3593                           ;mcal_layer/ecu_keypad.c: 46:     if((((void*)0) == _keypad_obj) || (((void*)0) == value
      +                          )){
  3594   002374  504B               	movf	keypad_get_value@_keypad_obj^0,w,c
  3595   002376  104C               	iorwf	(keypad_get_value@_keypad_obj+1)^0,w,c
  3596   002378  B4D8               	btfsc	status,2,c
  3597   00237A  EFC1  F011         	goto	u6401
  3598   00237E  EFC3  F011         	goto	u6400
  3599   002382                     u6401:
  3600   002382  EFCC  F011         	goto	l7801
  3601   002386                     u6400:
  3602   002386  504D               	movf	keypad_get_value@value^0,w,c
  3603   002388  104E               	iorwf	(keypad_get_value@value+1)^0,w,c
  3604   00238A  A4D8               	btfss	status,2,c
  3605   00238C  EFCA  F011         	goto	u6411
  3606   002390  EFCC  F011         	goto	u6410
  3607   002394                     u6411:
  3608   002394  EFD0  F011         	goto	l7803
  3609   002398                     u6410:
  3610   002398                     l7801:
  3611                           
  3612                           ;mcal_layer/ecu_keypad.c: 47:         ret = ( Std_returntype)0x00;
  3613   002398  0E00               	movlw	0
  3614   00239A  6E51               	movwf	keypad_get_value@ret^0,c
  3615                           
  3616                           ;mcal_layer/ecu_keypad.c: 48:     }
  3617   00239C  EF3C  F012         	goto	l7845
  3618   0023A0                     l7803:
  3619                           
  3620                           ;mcal_layer/ecu_keypad.c: 50:         for(l_rows_counter=0; l_rows_counter<4; l_rows_cou
      +                          nter++){
  3621   0023A0  0E00               	movlw	0
  3622   0023A2  6E54               	movwf	keypad_get_value@l_rows_counter^0,c
  3623   0023A4                     l7809:
  3624                           
  3625                           ;mcal_layer/ecu_keypad.c: 51:             for(l_counter=0; l_counter<4; l_counter++){
  3626   0023A4  0E00               	movlw	0
  3627   0023A6  6E53               	movwf	keypad_get_value@l_counter^0,c
  3628   0023A8                     l7815:
  3629   0023A8  5053               	movf	keypad_get_value@l_counter^0,w,c
  3630   0023AA  244B               	addwf	keypad_get_value@_keypad_obj^0,w,c
  3631   0023AC  6E41               	movwf	gpio_pin_write_logic@pin_config^0,c
  3632   0023AE  0E00               	movlw	0
  3633   0023B0  204C               	addwfc	(keypad_get_value@_keypad_obj+1)^0,w,c
  3634   0023B2  6E42               	movwf	(gpio_pin_write_logic@pin_config+1)^0,c
  3635   0023B4  0E00               	movlw	0
  3636   0023B6  6E43               	movwf	gpio_pin_write_logic@logic^0,c
  3637   0023B8  EC87  F010         	call	_gpio_pin_write_logic	;wreg free
  3638   0023BC                     
  3639                           ;mcal_layer/ecu_keypad.c: 53:             }
  3640   0023BC  2A53               	incf	keypad_get_value@l_counter^0,f,c
  3641   0023BE  0E03               	movlw	3
  3642   0023C0  6453               	cpfsgt	keypad_get_value@l_counter^0,c
  3643   0023C2  EFE5  F011         	goto	u6421
  3644   0023C6  EFE7  F011         	goto	u6420
  3645   0023CA                     u6421:
  3646   0023CA  EFD4  F011         	goto	l7815
  3647   0023CE                     u6420:
  3648   0023CE                     
  3649                           ;mcal_layer/ecu_keypad.c: 54:             gpio_pin_write_logic(&(_keypad_obj->keypad_row
      +                          _pins[l_rows_counter]), HIGH);
  3650   0023CE  5054               	movf	keypad_get_value@l_rows_counter^0,w,c
  3651   0023D0  244B               	addwf	keypad_get_value@_keypad_obj^0,w,c
  3652   0023D2  6E41               	movwf	gpio_pin_write_logic@pin_config^0,c
  3653   0023D4  0E00               	movlw	0
  3654   0023D6  204C               	addwfc	(keypad_get_value@_keypad_obj+1)^0,w,c
  3655   0023D8  6E42               	movwf	(gpio_pin_write_logic@pin_config+1)^0,c
  3656   0023DA  0E01               	movlw	1
  3657   0023DC  6E43               	movwf	gpio_pin_write_logic@logic^0,c
  3658   0023DE  EC87  F010         	call	_gpio_pin_write_logic	;wreg free
  3659   0023E2                     
  3660                           ;mcal_layer/ecu_keypad.c: 55:             _delay((unsigned long)((1)*(4000000/4000.0)));
  3661   0023E2  0EC8               	movlw	200
  3662   0023E4                     u7417:
  3663   0023E4  D000               	nop2	
  3664   0023E6  2EE8               	decfsz	wreg,f,c
  3665   0023E8  D7FD               	bra	u7417
  3666   0023EA                     
  3667                           ;mcal_layer/ecu_keypad.c: 56:             for(l_columns_counter=0; l_columns_counter<4; 
      +                          l_columns_counter++){
  3668   0023EA  0E00               	movlw	0
  3669   0023EC  6E55               	movwf	keypad_get_value@l_columns_counter^0,c
  3670   0023EE                     l7831:
  3671                           
  3672                           ;mcal_layer/ecu_keypad.c: 57:                 ret = gpio_pin_read_logic(&(_keypad_obj->k
      +                          eypad_columns_pins[l_columns_counter]), &column_logic);
  3673   0023EE  5055               	movf	keypad_get_value@l_columns_counter^0,w,c
  3674   0023F0  244B               	addwf	keypad_get_value@_keypad_obj^0,w,c
  3675   0023F2  6E4F               	movwf	??_keypad_get_value^0,c
  3676   0023F4  0E00               	movlw	0
  3677   0023F6  204C               	addwfc	(keypad_get_value@_keypad_obj+1)^0,w,c
  3678   0023F8  6E50               	movwf	(??_keypad_get_value+1)^0,c
  3679   0023FA  0E04               	movlw	4
  3680   0023FC  244F               	addwf	??_keypad_get_value^0,w,c
  3681   0023FE  6E41               	movwf	gpio_pin_read_logic@pin_config^0,c
  3682   002400  0E00               	movlw	0
  3683   002402  2050               	addwfc	(??_keypad_get_value+1)^0,w,c
  3684   002404  6E42               	movwf	(gpio_pin_read_logic@pin_config+1)^0,c
  3685   002406  0E52               	movlw	low keypad_get_value@column_logic
  3686   002408  6E43               	movwf	gpio_pin_read_logic@logic^0,c
  3687   00240A  0E00               	movlw	high keypad_get_value@column_logic
  3688   00240C  6E44               	movwf	(gpio_pin_read_logic@logic+1)^0,c
  3689   00240E  EC3E  F012         	call	_gpio_pin_read_logic	;wreg free
  3690   002412  6E51               	movwf	keypad_get_value@ret^0,c
  3691   002414                     
  3692                           ;mcal_layer/ecu_keypad.c: 58:                 if(HIGH == column_logic){
  3693   002414  0452               	decf	keypad_get_value@column_logic^0,w,c
  3694   002416  A4D8               	btfss	status,2,c
  3695   002418  EF10  F012         	goto	u6431
  3696   00241C  EF12  F012         	goto	u6430
  3697   002420                     u6431:
  3698   002420  EF2A  F012         	goto	l7837
  3699   002424                     u6430:
  3700   002424                     
  3701                           ;mcal_layer/ecu_keypad.c: 59:                     *value = btn_values[l_rows_counter][l_
      +                          columns_counter];
  3702   002424  5054               	movf	keypad_get_value@l_rows_counter^0,w,c
  3703   002426  0D04               	mullw	4
  3704   002428  0E01               	movlw	low _btn_values
  3705   00242A  24F3               	addwf	243,w,c
  3706   00242C  6E4F               	movwf	??_keypad_get_value^0,c
  3707   00242E  0E10               	movlw	high _btn_values
  3708   002430  20F4               	addwfc	prodh,w,c
  3709   002432  6E50               	movwf	(??_keypad_get_value+1)^0,c
  3710   002434  5055               	movf	keypad_get_value@l_columns_counter^0,w,c
  3711   002436  264F               	addwf	??_keypad_get_value^0,f,c
  3712   002438  0E00               	movlw	0
  3713   00243A  2250               	addwfc	(??_keypad_get_value+1)^0,f,c
  3714   00243C  C04F  FFF6         	movff	??_keypad_get_value,tblptrl
  3715   002440  C050  FFF7         	movff	??_keypad_get_value+1,tblptrh
  3716   002444                     	if	1	;Program memory is < 0x10000, tblptru is always zero
  3717   002444  6AF8               	clrf	tblptru,c
  3718   002446                     	endif
  3719   002446                     	if	0	;tblptru may be non-zero
  3720   002446                     	endif
  3721   002446  C04D  FFD9         	movff	keypad_get_value@value,fsr2l
  3722   00244A  C04E  FFDA         	movff	keypad_get_value@value+1,fsr2h
  3723   00244E  0008               	tblrd		*
  3724   002450  CFF5 FFDF          	movff	tablat,indf2
  3725   002454                     l7837:
  3726                           
  3727                           ;mcal_layer/ecu_keypad.c: 61:             }
  3728   002454  2A55               	incf	keypad_get_value@l_columns_counter^0,f,c
  3729   002456  0E03               	movlw	3
  3730   002458  6455               	cpfsgt	keypad_get_value@l_columns_counter^0,c
  3731   00245A  EF31  F012         	goto	u6441
  3732   00245E  EF33  F012         	goto	u6440
  3733   002462                     u6441:
  3734   002462  EFF7  F011         	goto	l7831
  3735   002466                     u6440:
  3736   002466                     
  3737                           ;mcal_layer/ecu_keypad.c: 62:         }
  3738   002466  2A54               	incf	keypad_get_value@l_rows_counter^0,f,c
  3739   002468  0E03               	movlw	3
  3740   00246A  6454               	cpfsgt	keypad_get_value@l_rows_counter^0,c
  3741   00246C  EF3A  F012         	goto	u6451
  3742   002470  EF3C  F012         	goto	u6450
  3743   002474                     u6451:
  3744   002474  EFD2  F011         	goto	l7809
  3745   002478                     u6450:
  3746   002478                     l7845:
  3747                           
  3748                           ;mcal_layer/ecu_keypad.c: 64:     return ret;
  3749   002478  5051               	movf	keypad_get_value@ret^0,w,c
  3750   00247A  0012               	return		;funcret
  3751   00247C                     __end_of_keypad_get_value:
  3752                           	callstack 0
  3753                           
  3754 ;; *************** function _gpio_pin_read_logic *****************
  3755 ;; Defined at:
  3756 ;;		line 89 in file "mcal_layer/GPIO/hal_gpio.c"
  3757 ;; Parameters:    Size  Location     Type
  3758 ;;  pin_config      2    1[COMRAM] PTR const struct .
  3759 ;;		 -> keypad1.keypad_columns_pins(4), keypad1(8), 
  3760 ;;  logic           2    3[COMRAM] PTR enum E2968
  3761 ;;		 -> keypad_get_value_blocking@column_logic(1), keypad_read_switch@status_pin(1), keypad_get_value@column_logic(1), b
      +utton_read_state@pin_t(1), 
  3762 ;; Auto vars:     Size  Location     Type
  3763 ;;  ret             1   10[COMRAM] unsigned char 
  3764 ;; Return value:  Size  Location     Type
  3765 ;;                  1    wreg      unsigned char 
  3766 ;; Registers used:
  3767 ;;		wreg, fsr2l, fsr2h, status,2, status,0, prodl, prodh
  3768 ;; Tracked objects:
  3769 ;;		On entry : 0/0
  3770 ;;		On exit  : 0/0
  3771 ;;		Unchanged: 0/0
  3772 ;; Data sizes:     COMRAM   BANK0   BANK1   BANK2   BANK3   BANK4   BANK5   BANK6   BANK7   BANK8   BANK9  BANK10  BANK1
      +1  BANK12  BANK13  BANK14  BANK15
  3773 ;;      Params:         4       0       0       0       0       0       0       0       0       0       0       0       
      +0       0       0       0       0
  3774 ;;      Locals:         1       0       0       0       0       0       0       0       0       0       0       0       
      +0       0       0       0       0
  3775 ;;      Temps:          5       0       0       0       0       0       0       0       0       0       0       0       
      +0       0       0       0       0
  3776 ;;      Totals:        10       0       0       0       0       0       0       0       0       0       0       0       
      +0       0       0       0       0
  3777 ;;Total ram usage:       10 bytes
  3778 ;; Hardware stack levels used: 1
  3779 ;; Hardware stack levels required when called: 2
  3780 ;; This function calls:
  3781 ;;		Nothing
  3782 ;; This function is called by:
  3783 ;;		_keypad_get_value
  3784 ;;		_keypad_read_switch
  3785 ;;		_keypad_get_value_blocking
  3786 ;;		_button_read_state
  3787 ;; This function uses a non-reentrant model
  3788 ;;
  3789                           
  3790                           	psect	text11
  3791   00247C                     __ptext11:
  3792                           	callstack 0
  3793   00247C                     _gpio_pin_read_logic:
  3794                           	callstack 27
  3795   00247C                     
  3796                           ;mcal_layer/GPIO/hal_gpio.c: 90:     Std_returntype ret = ( Std_returntype)0x01 ;
  3797   00247C  0E01               	movlw	1
  3798   00247E  6E4A               	movwf	gpio_pin_read_logic@ret^0,c
  3799   002480                     
  3800                           ;mcal_layer/GPIO/hal_gpio.c: 91:           if(((void*)0)==pin_config || ((void*)0)==logi
      +                          c || pin_config->pin> 8 -1 ){
  3801   002480  5041               	movf	gpio_pin_read_logic@pin_config^0,w,c
  3802   002482  1042               	iorwf	(gpio_pin_read_logic@pin_config+1)^0,w,c
  3803   002484  B4D8               	btfsc	status,2,c
  3804   002486  EF47  F012         	goto	u6151
  3805   00248A  EF49  F012         	goto	u6150
  3806   00248E                     u6151:
  3807   00248E  EF63  F012         	goto	l7503
  3808   002492                     u6150:
  3809   002492  5043               	movf	gpio_pin_read_logic@logic^0,w,c
  3810   002494  1044               	iorwf	(gpio_pin_read_logic@logic+1)^0,w,c
  3811   002496  B4D8               	btfsc	status,2,c
  3812   002498  EF50  F012         	goto	u6161
  3813   00249C  EF52  F012         	goto	u6160
  3814   0024A0                     u6161:
  3815   0024A0  EF63  F012         	goto	l7503
  3816   0024A4                     u6160:
  3817   0024A4  C041  FFD9         	movff	gpio_pin_read_logic@pin_config,fsr2l
  3818   0024A8  C042  FFDA         	movff	gpio_pin_read_logic@pin_config+1,fsr2h
  3819   0024AC  30DF               	rrcf	223,w,c
  3820   0024AE  32E8               	rrcf	wreg,f,c
  3821   0024B0  32E8               	rrcf	wreg,f,c
  3822   0024B2  0B07               	andlw	7
  3823   0024B4  6E45               	movwf	??_gpio_pin_read_logic^0,c
  3824   0024B6  0E07               	movlw	7
  3825   0024B8  6445               	cpfsgt	??_gpio_pin_read_logic^0,c
  3826   0024BA  EF61  F012         	goto	u6171
  3827   0024BE  EF63  F012         	goto	u6170
  3828   0024C2                     u6171:
  3829   0024C2  EF67  F012         	goto	l7505
  3830   0024C6                     u6170:
  3831   0024C6                     l7503:
  3832                           
  3833                           ;mcal_layer/GPIO/hal_gpio.c: 92:              ret=( Std_returntype)0x00 ; }
  3834   0024C6  0E00               	movlw	0
  3835   0024C8  6E4A               	movwf	gpio_pin_read_logic@ret^0,c
  3836   0024CA  EF98  F012         	goto	l7507
  3837   0024CE                     l7505:
  3838                           
  3839                           ;mcal_layer/GPIO/hal_gpio.c: 94:             *logic= ((*port_register[pin_config->port]>
      +                          >pin_config->pin) & 1 );}
  3840   0024CE  C041  FFD9         	movff	gpio_pin_read_logic@pin_config,fsr2l
  3841   0024D2  C042  FFDA         	movff	gpio_pin_read_logic@pin_config+1,fsr2h
  3842   0024D6  30DF               	rrcf	223,w,c
  3843   0024D8  32E8               	rrcf	wreg,f,c
  3844   0024DA  32E8               	rrcf	wreg,f,c
  3845   0024DC  0B07               	andlw	7
  3846   0024DE  6E45               	movwf	??_gpio_pin_read_logic^0,c
  3847   0024E0  C041  FFD9         	movff	gpio_pin_read_logic@pin_config,fsr2l
  3848   0024E4  C042  FFDA         	movff	gpio_pin_read_logic@pin_config+1,fsr2h
  3849   0024E8  50DF               	movf	223,w,c
  3850   0024EA  0B07               	andlw	7
  3851   0024EC  6E46               	movwf	(??_gpio_pin_read_logic+1)^0,c
  3852   0024EE  5046               	movf	(??_gpio_pin_read_logic+1)^0,w,c
  3853   0024F0  0D02               	mullw	2
  3854   0024F2  0E80               	movlw	low _port_register
  3855   0024F4  24F3               	addwf	243,w,c
  3856   0024F6  6ED9               	movwf	fsr2l,c
  3857   0024F8  0E00               	movlw	high _port_register
  3858   0024FA  20F4               	addwfc	prodh,w,c
  3859   0024FC  6EDA               	movwf	fsr2h,c
  3860   0024FE  CFDE F047          	movff	postinc2,??_gpio_pin_read_logic+2
  3861   002502  CFDD F048          	movff	postdec2,??_gpio_pin_read_logic+3
  3862   002506  C047  FFD9         	movff	??_gpio_pin_read_logic+2,fsr2l
  3863   00250A  C048  FFDA         	movff	??_gpio_pin_read_logic+3,fsr2h
  3864   00250E  50DF               	movf	indf2,w,c
  3865   002510  6E49               	movwf	(??_gpio_pin_read_logic+4)^0,c
  3866   002512  2A45               	incf	??_gpio_pin_read_logic^0,f,c
  3867   002514  EF8E  F012         	goto	u6184
  3868   002518                     u6185:
  3869   002518  90D8               	bcf	status,0,c
  3870   00251A  3249               	rrcf	(??_gpio_pin_read_logic+4)^0,f,c
  3871   00251C                     u6184:
  3872   00251C  2E45               	decfsz	??_gpio_pin_read_logic^0,f,c
  3873   00251E  EF8C  F012         	goto	u6185
  3874   002522  5049               	movf	(??_gpio_pin_read_logic+4)^0,w,c
  3875   002524  0B01               	andlw	1
  3876   002526  C043  FFD9         	movff	gpio_pin_read_logic@logic,fsr2l
  3877   00252A  C044  FFDA         	movff	gpio_pin_read_logic@logic+1,fsr2h
  3878   00252E  6EDF               	movwf	indf2,c
  3879   002530                     l7507:
  3880                           
  3881                           ;mcal_layer/GPIO/hal_gpio.c: 95:      return ret ;
  3882   002530  504A               	movf	gpio_pin_read_logic@ret^0,w,c
  3883   002532  0012               	return		;funcret
  3884   002534                     __end_of_gpio_pin_read_logic:
  3885                           	callstack 0
  3886                           
  3887 ;; *************** function _application_intialize *****************
  3888 ;; Defined at:
  3889 ;;		line 297 in file "application.c"
  3890 ;; Parameters:    Size  Location     Type
  3891 ;;		None
  3892 ;; Auto vars:     Size  Location     Type
  3893 ;;  ret             1    0        unsigned char 
  3894 ;; Return value:  Size  Location     Type
  3895 ;;                  1    wreg      void 
  3896 ;; Registers used:
  3897 ;;		wreg, fsr2l, fsr2h, status,2, status,0, prodl, prodh, cstack
  3898 ;; Tracked objects:
  3899 ;;		On entry : 0/0
  3900 ;;		On exit  : 0/0
  3901 ;;		Unchanged: 0/0
  3902 ;; Data sizes:     COMRAM   BANK0   BANK1   BANK2   BANK3   BANK4   BANK5   BANK6   BANK7   BANK8   BANK9  BANK10  BANK1
      +1  BANK12  BANK13  BANK14  BANK15
  3903 ;;      Params:         0       0       0       0       0       0       0       0       0       0       0       0       
      +0       0       0       0       0
  3904 ;;      Locals:         0       0       0       0       0       0       0       0       0       0       0       0       
      +0       0       0       0       0
  3905 ;;      Temps:          0       0       0       0       0       0       0       0       0       0       0       0       
      +0       0       0       0       0
  3906 ;;      Totals:         0       0       0       0       0       0       0       0       0       0       0       0       
      +0       0       0       0       0
  3907 ;;Total ram usage:        0 bytes
  3908 ;; Hardware stack levels used: 1
  3909 ;; Hardware stack levels required when called: 6
  3910 ;; This function calls:
  3911 ;;		_Timer0_Init
  3912 ;;		_gpio_pin_intialize
  3913 ;;		_keypad_initialize
  3914 ;;		_lcd_4bit_intialize
  3915 ;;		_led_initialize
  3916 ;;		_seven_segement_intialize
  3917 ;; This function is called by:
  3918 ;;		_main
  3919 ;; This function uses a non-reentrant model
  3920 ;;
  3921                           
  3922                           	psect	text12
  3923   002714                     __ptext12:
  3924                           	callstack 0
  3925   002714                     _application_intialize:
  3926                           	callstack 24
  3927   002714  0EA8               	movlw	low _keypad1
  3928   002716  6E4F               	movwf	keypad_initialize@_keypad_obj^0,c
  3929   002718  0E00               	movlw	high _keypad1
  3930   00271A  6E50               	movwf	(keypad_initialize@_keypad_obj+1)^0,c
  3931   00271C  ECD3  F013         	call	_keypad_initialize	;wreg free
  3932   002720  0EB0               	movlw	low _timer0_counter_obj
  3933   002722  6E44               	movwf	Timer0_Init@_timer^0,c
  3934   002724  0E00               	movlw	high _timer0_counter_obj
  3935   002726  6E45               	movwf	(Timer0_Init@_timer+1)^0,c
  3936   002728  ECEE  F012         	call	_Timer0_Init	;wreg free
  3937   00272C  0E6D               	movlw	low _lcd_1
  3938   00272E  6E54               	movwf	lcd_4bit_intialize@lcd^0,c
  3939   002730  0E00               	movlw	high _lcd_1
  3940   002732  6E55               	movwf	(lcd_4bit_intialize@lcd+1)^0,c
  3941   002734  EC1D  F011         	call	_lcd_4bit_intialize	;wreg free
  3942   002738  0E78               	movlw	low _seg_pin_1
  3943   00273A  6E4B               	movwf	gpio_pin_intialize@pin_config^0,c
  3944   00273C  0E00               	movlw	high _seg_pin_1
  3945   00273E  6E4C               	movwf	(gpio_pin_intialize@pin_config+1)^0,c
  3946   002740  ECF4  F015         	call	_gpio_pin_intialize	;wreg free
  3947   002744  0E77               	movlw	low _seg_pin_2
  3948   002746  6E4B               	movwf	gpio_pin_intialize@pin_config^0,c
  3949   002748  0E00               	movlw	high _seg_pin_2
  3950   00274A  6E4C               	movwf	(gpio_pin_intialize@pin_config+1)^0,c
  3951   00274C  ECF4  F015         	call	_gpio_pin_intialize	;wreg free
  3952   002750  0E76               	movlw	low _seg_pin_3
  3953   002752  6E4B               	movwf	gpio_pin_intialize@pin_config^0,c
  3954   002754  0E00               	movlw	high _seg_pin_3
  3955   002756  6E4C               	movwf	(gpio_pin_intialize@pin_config+1)^0,c
  3956   002758  ECF4  F015         	call	_gpio_pin_intialize	;wreg free
  3957   00275C  0E75               	movlw	low _seg_pin_4
  3958   00275E  6E4B               	movwf	gpio_pin_intialize@pin_config^0,c
  3959   002760  0E00               	movlw	high _seg_pin_4
  3960   002762  6E4C               	movwf	(gpio_pin_intialize@pin_config+1)^0,c
  3961   002764  ECF4  F015         	call	_gpio_pin_intialize	;wreg free
  3962   002768  0E74               	movlw	low _seg_pin_5
  3963   00276A  6E4B               	movwf	gpio_pin_intialize@pin_config^0,c
  3964   00276C  0E00               	movlw	high _seg_pin_5
  3965   00276E  6E4C               	movwf	(gpio_pin_intialize@pin_config+1)^0,c
  3966   002770  ECF4  F015         	call	_gpio_pin_intialize	;wreg free
  3967   002774  0E73               	movlw	low _seg_pin_6
  3968   002776  6E4B               	movwf	gpio_pin_intialize@pin_config^0,c
  3969   002778  0E00               	movlw	high _seg_pin_6
  3970   00277A  6E4C               	movwf	(gpio_pin_intialize@pin_config+1)^0,c
  3971   00277C  ECF4  F015         	call	_gpio_pin_intialize	;wreg free
  3972   002780  0EB7               	movlw	low _segment_1
  3973   002782  6E4F               	movwf	seven_segement_intialize@seg^0,c
  3974   002784  0E00               	movlw	high _segment_1
  3975   002786  6E50               	movwf	(seven_segement_intialize@seg+1)^0,c
  3976   002788  ECC1  F016         	call	_seven_segement_intialize	;wreg free
  3977   00278C  0E3F               	movlw	low _led1
  3978   00278E  6E4F               	movwf	led_initialize@led^0,c
  3979   002790  0E00               	movlw	high _led1
  3980   002792  6E50               	movwf	(led_initialize@led+1)^0,c
  3981   002794  EC90  F014         	call	_led_initialize	;wreg free
  3982   002798  0E79               	movlw	low _led2
  3983   00279A  6E4F               	movwf	led_initialize@led^0,c
  3984   00279C  0E00               	movlw	high _led2
  3985   00279E  6E50               	movwf	(led_initialize@led+1)^0,c
  3986   0027A0  EC90  F014         	call	_led_initialize	;wreg free
  3987   0027A4  0012               	return		;funcret
  3988   0027A6                     __end_of_application_intialize:
  3989                           	callstack 0
  3990                           
  3991 ;; *************** function _seven_segement_intialize *****************
  3992 ;; Defined at:
  3993 ;;		line 10 in file "mcal_layer/ecu_7seg.c"
  3994 ;; Parameters:    Size  Location     Type
  3995 ;;  seg             2   15[COMRAM] PTR const struct .
  3996 ;;		 -> segment_1(5), 
  3997 ;; Auto vars:     Size  Location     Type
  3998 ;;  ret             1   17[COMRAM] unsigned char 
  3999 ;; Return value:  Size  Location     Type
  4000 ;;                  1    wreg      unsigned char 
  4001 ;; Registers used:
  4002 ;;		wreg, fsr2l, fsr2h, status,2, status,0, prodl, prodh, cstack
  4003 ;; Tracked objects:
  4004 ;;		On entry : 0/0
  4005 ;;		On exit  : 0/0
  4006 ;;		Unchanged: 0/0
  4007 ;; Data sizes:     COMRAM   BANK0   BANK1   BANK2   BANK3   BANK4   BANK5   BANK6   BANK7   BANK8   BANK9  BANK10  BANK1
      +1  BANK12  BANK13  BANK14  BANK15
  4008 ;;      Params:         2       0       0       0       0       0       0       0       0       0       0       0       
      +0       0       0       0       0
  4009 ;;      Locals:         1       0       0       0       0       0       0       0       0       0       0       0       
      +0       0       0       0       0
  4010 ;;      Temps:          0       0       0       0       0       0       0       0       0       0       0       0       
      +0       0       0       0       0
  4011 ;;      Totals:         3       0       0       0       0       0       0       0       0       0       0       0       
      +0       0       0       0       0
  4012 ;;Total ram usage:        3 bytes
  4013 ;; Hardware stack levels used: 1
  4014 ;; Hardware stack levels required when called: 4
  4015 ;; This function calls:
  4016 ;;		_gpio_pin_intialize
  4017 ;; This function is called by:
  4018 ;;		_application_intialize
  4019 ;; This function uses a non-reentrant model
  4020 ;;
  4021                           
  4022                           	psect	text13
  4023   002D82                     __ptext13:
  4024                           	callstack 0
  4025   002D82                     _seven_segement_intialize:
  4026                           	callstack 25
  4027   002D82                     
  4028                           ;mcal_layer/ecu_7seg.c: 12:     if(((void*)0) == seg){
  4029   002D82  504F               	movf	seven_segement_intialize@seg^0,w,c
  4030   002D84  1050               	iorwf	(seven_segement_intialize@seg+1)^0,w,c
  4031   002D86  A4D8               	btfss	status,2,c
  4032   002D88  EFC8  F016         	goto	u6141
  4033   002D8C  EFCA  F016         	goto	u6140
  4034   002D90                     u6141:
  4035   002D90  EFCE  F016         	goto	l7489
  4036   002D94                     u6140:
  4037   002D94                     
  4038                           ;mcal_layer/ecu_7seg.c: 13:         ret = ( Std_returntype)0x00;
  4039   002D94  0E00               	movlw	0
  4040   002D96  6E51               	movwf	seven_segement_intialize@ret^0,c
  4041                           
  4042                           ;mcal_layer/ecu_7seg.c: 14:     }
  4043   002D98  EFF0  F016         	goto	l7491
  4044   002D9C                     l7489:
  4045                           
  4046                           ;mcal_layer/ecu_7seg.c: 16:         ret = gpio_pin_intialize(&(seg->segment_pins[0]));
  4047   002D9C  C04F  F04B         	movff	seven_segement_intialize@seg,gpio_pin_intialize@pin_config
  4048   002DA0  C050  F04C         	movff	seven_segement_intialize@seg+1,gpio_pin_intialize@pin_config+1
  4049   002DA4  ECF4  F015         	call	_gpio_pin_intialize	;wreg free
  4050   002DA8  6E51               	movwf	seven_segement_intialize@ret^0,c
  4051                           
  4052                           ;mcal_layer/ecu_7seg.c: 17:         ret = gpio_pin_intialize(&(seg->segment_pins[1]));
  4053   002DAA  0E01               	movlw	1
  4054   002DAC  244F               	addwf	seven_segement_intialize@seg^0,w,c
  4055   002DAE  6E4B               	movwf	gpio_pin_intialize@pin_config^0,c
  4056   002DB0  0E00               	movlw	0
  4057   002DB2  2050               	addwfc	(seven_segement_intialize@seg+1)^0,w,c
  4058   002DB4  6E4C               	movwf	(gpio_pin_intialize@pin_config+1)^0,c
  4059   002DB6  ECF4  F015         	call	_gpio_pin_intialize	;wreg free
  4060   002DBA  6E51               	movwf	seven_segement_intialize@ret^0,c
  4061                           
  4062                           ;mcal_layer/ecu_7seg.c: 18:         ret = gpio_pin_intialize(&(seg->segment_pins[2]));
  4063   002DBC  0E02               	movlw	2
  4064   002DBE  244F               	addwf	seven_segement_intialize@seg^0,w,c
  4065   002DC0  6E4B               	movwf	gpio_pin_intialize@pin_config^0,c
  4066   002DC2  0E00               	movlw	0
  4067   002DC4  2050               	addwfc	(seven_segement_intialize@seg+1)^0,w,c
  4068   002DC6  6E4C               	movwf	(gpio_pin_intialize@pin_config+1)^0,c
  4069   002DC8  ECF4  F015         	call	_gpio_pin_intialize	;wreg free
  4070   002DCC  6E51               	movwf	seven_segement_intialize@ret^0,c
  4071                           
  4072                           ;mcal_layer/ecu_7seg.c: 19:         ret = gpio_pin_intialize(&(seg->segment_pins[3]));
  4073   002DCE  0E03               	movlw	3
  4074   002DD0  244F               	addwf	seven_segement_intialize@seg^0,w,c
  4075   002DD2  6E4B               	movwf	gpio_pin_intialize@pin_config^0,c
  4076   002DD4  0E00               	movlw	0
  4077   002DD6  2050               	addwfc	(seven_segement_intialize@seg+1)^0,w,c
  4078   002DD8  6E4C               	movwf	(gpio_pin_intialize@pin_config+1)^0,c
  4079   002DDA  ECF4  F015         	call	_gpio_pin_intialize	;wreg free
  4080   002DDE  6E51               	movwf	seven_segement_intialize@ret^0,c
  4081   002DE0                     l7491:
  4082                           
  4083                           ;mcal_layer/ecu_7seg.c: 21:     return ret;
  4084   002DE0  5051               	movf	seven_segement_intialize@ret^0,w,c
  4085   002DE2  0012               	return		;funcret
  4086   002DE4                     __end_of_seven_segement_intialize:
  4087                           	callstack 0
  4088                           
  4089 ;; *************** function _led_initialize *****************
  4090 ;; Defined at:
  4091 ;;		line 14 in file "mcal_layer/ecu_led.c"
  4092 ;; Parameters:    Size  Location     Type
  4093 ;;  led             2   15[COMRAM] PTR const struct .
  4094 ;;		 -> led1(1), led2(1), 
  4095 ;; Auto vars:     Size  Location     Type
  4096 ;;  object          1   19[COMRAM] struct .
  4097 ;;  ret             1   18[COMRAM] unsigned char 
  4098 ;; Return value:  Size  Location     Type
  4099 ;;                  1    wreg      unsigned char 
  4100 ;; Registers used:
  4101 ;;		wreg, fsr2l, fsr2h, status,2, status,0, prodl, prodh, cstack
  4102 ;; Tracked objects:
  4103 ;;		On entry : 0/0
  4104 ;;		On exit  : 0/0
  4105 ;;		Unchanged: 0/0
  4106 ;; Data sizes:     COMRAM   BANK0   BANK1   BANK2   BANK3   BANK4   BANK5   BANK6   BANK7   BANK8   BANK9  BANK10  BANK1
      +1  BANK12  BANK13  BANK14  BANK15
  4107 ;;      Params:         2       0       0       0       0       0       0       0       0       0       0       0       
      +0       0       0       0       0
  4108 ;;      Locals:         2       0       0       0       0       0       0       0       0       0       0       0       
      +0       0       0       0       0
  4109 ;;      Temps:          1       0       0       0       0       0       0       0       0       0       0       0       
      +0       0       0       0       0
  4110 ;;      Totals:         5       0       0       0       0       0       0       0       0       0       0       0       
      +0       0       0       0       0
  4111 ;;Total ram usage:        5 bytes
  4112 ;; Hardware stack levels used: 1
  4113 ;; Hardware stack levels required when called: 4
  4114 ;; This function calls:
  4115 ;;		_gpio_pin_intialize
  4116 ;; This function is called by:
  4117 ;;		_application_intialize
  4118 ;; This function uses a non-reentrant model
  4119 ;;
  4120                           
  4121                           	psect	text14
  4122   002920                     __ptext14:
  4123                           	callstack 0
  4124   002920                     _led_initialize:
  4125                           	callstack 25
  4126   002920                     
  4127                           ;mcal_layer/ecu_led.c: 15:  Std_returntype ret =( Std_returntype)0x01;
  4128   002920  0E01               	movlw	1
  4129   002922  6E52               	movwf	led_initialize@ret^0,c
  4130   002924                     
  4131                           ;mcal_layer/ecu_led.c: 17:     if(((void*)0) == led){
  4132   002924  504F               	movf	led_initialize@led^0,w,c
  4133   002926  1050               	iorwf	(led_initialize@led+1)^0,w,c
  4134   002928  A4D8               	btfss	status,2,c
  4135   00292A  EF99  F014         	goto	u6281
  4136   00292E  EF9B  F014         	goto	u6280
  4137   002932                     u6281:
  4138   002932  EF9F  F014         	goto	l333
  4139   002936                     u6280:
  4140   002936                     
  4141                           ;mcal_layer/ecu_led.c: 18:         ret = ( Std_returntype)0x00;
  4142   002936  0E00               	movlw	0
  4143   002938  6E52               	movwf	led_initialize@ret^0,c
  4144                           
  4145                           ;mcal_layer/ecu_led.c: 19:     }
  4146   00293A  EFCC  F014         	goto	l7677
  4147   00293E                     l333:
  4148                           
  4149                           ;mcal_layer/ecu_led.c: 21:        pin_config_t object = {.port=led->port_name,.pin=led->
      +                          pin, .direction=OUTPUT,.logic=led->led_status};
  4150   00293E  C02D  F053         	movff	led_initialize@F3048,led_initialize@object
  4151   002942  C04F  FFD9         	movff	led_initialize@led,fsr2l
  4152   002946  C050  FFDA         	movff	led_initialize@led+1,fsr2h
  4153   00294A  50DF               	movf	223,w,c
  4154   00294C  0B0F               	andlw	15
  4155   00294E  6E51               	movwf	??_led_initialize^0,c
  4156   002950  5053               	movf	led_initialize@object^0,w,c
  4157   002952  1851               	xorwf	??_led_initialize^0,w,c
  4158   002954  0BF8               	andlw	-8
  4159   002956  1851               	xorwf	??_led_initialize^0,w,c
  4160   002958  6E53               	movwf	led_initialize@object^0,c
  4161   00295A  C04F  FFD9         	movff	led_initialize@led,fsr2l
  4162   00295E  C050  FFDA         	movff	led_initialize@led+1,fsr2h
  4163   002962  38DF               	swapf	223,w,c
  4164   002964  0B07               	andlw	7
  4165   002966  6E51               	movwf	??_led_initialize^0,c
  4166   002968  4651               	rlncf	??_led_initialize^0,f,c
  4167   00296A  4651               	rlncf	??_led_initialize^0,f,c
  4168   00296C  4651               	rlncf	??_led_initialize^0,f,c
  4169   00296E  5053               	movf	led_initialize@object^0,w,c
  4170   002970  1851               	xorwf	??_led_initialize^0,w,c
  4171   002972  0BC7               	andlw	-57
  4172   002974  1851               	xorwf	??_led_initialize^0,w,c
  4173   002976  6E53               	movwf	led_initialize@object^0,c
  4174   002978  9C53               	bcf	led_initialize@object^0,6,c
  4175   00297A  C04F  FFD9         	movff	led_initialize@led,fsr2l
  4176   00297E  C050  FFDA         	movff	led_initialize@led+1,fsr2h
  4177   002982  AEDF               	btfss	indf2,7,c
  4178   002984  D002               	bra	u6295
  4179   002986  8E53               	bsf	led_initialize@object^0,7,c
  4180   002988  D001               	bra	u6297
  4181   00298A                     u6295:
  4182   00298A  9E53               	bcf	led_initialize@object^0,7,c
  4183   00298C                     u6297:
  4184   00298C                     
  4185                           ;mcal_layer/ecu_led.c: 22:         gpio_pin_intialize(&object);
  4186   00298C  0E53               	movlw	low led_initialize@object
  4187   00298E  6E4B               	movwf	gpio_pin_intialize@pin_config^0,c
  4188   002990  0E00               	movlw	high led_initialize@object
  4189   002992  6E4C               	movwf	(gpio_pin_intialize@pin_config+1)^0,c
  4190   002994  ECF4  F015         	call	_gpio_pin_intialize	;wreg free
  4191   002998                     l7677:
  4192                           
  4193                           ;mcal_layer/ecu_led.c: 25:     return ret;}
  4194   002998  5052               	movf	led_initialize@ret^0,w,c
  4195   00299A  0012               	return		;funcret
  4196   00299C                     __end_of_led_initialize:
  4197                           	callstack 0
  4198                           
  4199 ;; *************** function _lcd_4bit_intialize *****************
  4200 ;; Defined at:
  4201 ;;		line 15 in file "mcal_layer/ecu_lcd.c"
  4202 ;; Parameters:    Size  Location     Type
  4203 ;;  lcd             2   20[COMRAM] PTR const struct .
  4204 ;;		 -> lcd_1(6), 
  4205 ;; Auto vars:     Size  Location     Type
  4206 ;;  ret             1   25[COMRAM] unsigned char 
  4207 ;;  l_data_pins_    1   24[COMRAM] unsigned char 
  4208 ;; Return value:  Size  Location     Type
  4209 ;;                  1    wreg      unsigned char 
  4210 ;; Registers used:
  4211 ;;		wreg, fsr2l, fsr2h, status,2, status,0, prodl, prodh, cstack
  4212 ;; Tracked objects:
  4213 ;;		On entry : 0/0
  4214 ;;		On exit  : 0/0
  4215 ;;		Unchanged: 0/0
  4216 ;; Data sizes:     COMRAM   BANK0   BANK1   BANK2   BANK3   BANK4   BANK5   BANK6   BANK7   BANK8   BANK9  BANK10  BANK1
      +1  BANK12  BANK13  BANK14  BANK15
  4217 ;;      Params:         2       0       0       0       0       0       0       0       0       0       0       0       
      +0       0       0       0       0
  4218 ;;      Locals:         2       0       0       0       0       0       0       0       0       0       0       0       
      +0       0       0       0       0
  4219 ;;      Temps:          2       0       0       0       0       0       0       0       0       0       0       0       
      +0       0       0       0       0
  4220 ;;      Totals:         6       0       0       0       0       0       0       0       0       0       0       0       
      +0       0       0       0       0
  4221 ;;Total ram usage:        6 bytes
  4222 ;; Hardware stack levels used: 1
  4223 ;; Hardware stack levels required when called: 5
  4224 ;; This function calls:
  4225 ;;		_gpio_pin_intialize
  4226 ;;		_lcd_4bit_send_command
  4227 ;; This function is called by:
  4228 ;;		_application_intialize
  4229 ;; This function uses a non-reentrant model
  4230 ;;
  4231                           
  4232                           	psect	text15
  4233   00223A                     __ptext15:
  4234                           	callstack 0
  4235   00223A                     _lcd_4bit_intialize:
  4236                           	callstack 24
  4237   00223A                     
  4238                           ;mcal_layer/ecu_lcd.c: 20:      uint8 l_data_pins_counter = 0;
  4239   00223A  0E00               	movlw	0
  4240   00223C  6E58               	movwf	lcd_4bit_intialize@l_data_pins_counter^0,c
  4241   00223E                     
  4242                           ;mcal_layer/ecu_lcd.c: 22:     if(((void*)0) == lcd){
  4243   00223E  5054               	movf	lcd_4bit_intialize@lcd^0,w,c
  4244   002240  1055               	iorwf	(lcd_4bit_intialize@lcd+1)^0,w,c
  4245   002242  A4D8               	btfss	status,2,c
  4246   002244  EF26  F011         	goto	u6191
  4247   002248  EF28  F011         	goto	u6190
  4248   00224C                     u6191:
  4249   00224C  EF2C  F011         	goto	l7517
  4250   002250                     u6190:
  4251   002250                     
  4252                           ;mcal_layer/ecu_lcd.c: 23:         ret = ( Std_returntype)0x00;
  4253   002250  0E00               	movlw	0
  4254   002252  6E59               	movwf	lcd_4bit_intialize@ret^0,c
  4255                           
  4256                           ;mcal_layer/ecu_lcd.c: 24:     }
  4257   002254  EFB0  F011         	goto	l7553
  4258   002258                     l7517:
  4259                           
  4260                           ;mcal_layer/ecu_lcd.c: 26:                 ret = gpio_pin_intialize(&(lcd->lcd_rs));
  4261   002258  C054  F04B         	movff	lcd_4bit_intialize@lcd,gpio_pin_intialize@pin_config
  4262   00225C  C055  F04C         	movff	lcd_4bit_intialize@lcd+1,gpio_pin_intialize@pin_config+1
  4263   002260  ECF4  F015         	call	_gpio_pin_intialize	;wreg free
  4264   002264  6E59               	movwf	lcd_4bit_intialize@ret^0,c
  4265                           
  4266                           ;mcal_layer/ecu_lcd.c: 27:         ret = gpio_pin_intialize(&(lcd->lcd_en));
  4267   002266  0E01               	movlw	1
  4268   002268  2454               	addwf	lcd_4bit_intialize@lcd^0,w,c
  4269   00226A  6E4B               	movwf	gpio_pin_intialize@pin_config^0,c
  4270   00226C  0E00               	movlw	0
  4271   00226E  2055               	addwfc	(lcd_4bit_intialize@lcd+1)^0,w,c
  4272   002270  6E4C               	movwf	(gpio_pin_intialize@pin_config+1)^0,c
  4273   002272  ECF4  F015         	call	_gpio_pin_intialize	;wreg free
  4274   002276  6E59               	movwf	lcd_4bit_intialize@ret^0,c
  4275   002278                     
  4276                           ;mcal_layer/ecu_lcd.c: 28:         for(l_data_pins_counter=0; l_data_pins_counter<4; l_d
      +                          ata_pins_counter++){
  4277   002278  0E00               	movlw	0
  4278   00227A  6E58               	movwf	lcd_4bit_intialize@l_data_pins_counter^0,c
  4279   00227C                     l7525:
  4280   00227C  5058               	movf	lcd_4bit_intialize@l_data_pins_counter^0,w,c
  4281   00227E  2454               	addwf	lcd_4bit_intialize@lcd^0,w,c
  4282   002280  6E56               	movwf	??_lcd_4bit_intialize^0,c
  4283   002282  0E00               	movlw	0
  4284   002284  2055               	addwfc	(lcd_4bit_intialize@lcd+1)^0,w,c
  4285   002286  6E57               	movwf	(??_lcd_4bit_intialize+1)^0,c
  4286   002288  0E02               	movlw	2
  4287   00228A  2456               	addwf	??_lcd_4bit_intialize^0,w,c
  4288   00228C  6E4B               	movwf	gpio_pin_intialize@pin_config^0,c
  4289   00228E  0E00               	movlw	0
  4290   002290  2057               	addwfc	(??_lcd_4bit_intialize+1)^0,w,c
  4291   002292  6E4C               	movwf	(gpio_pin_intialize@pin_config+1)^0,c
  4292   002294  ECF4  F015         	call	_gpio_pin_intialize	;wreg free
  4293   002298                     
  4294                           ;mcal_layer/ecu_lcd.c: 30:         }
  4295   002298  2A58               	incf	lcd_4bit_intialize@l_data_pins_counter^0,f,c
  4296   00229A  0E03               	movlw	3
  4297   00229C  6458               	cpfsgt	lcd_4bit_intialize@l_data_pins_counter^0,c
  4298   00229E  EF53  F011         	goto	u6201
  4299   0022A2  EF55  F011         	goto	u6200
  4300   0022A6                     u6201:
  4301   0022A6  EF3E  F011         	goto	l7525
  4302   0022AA                     u6200:
  4303   0022AA                     
  4304                           ;mcal_layer/ecu_lcd.c: 31:         _delay((unsigned long)((20)*(20000000/4000.0)));
  4305   0022AA  0E82               	movlw	130
  4306   0022AC  6E56               	movwf	??_lcd_4bit_intialize^0,c
  4307   0022AE  0EDE               	movlw	222
  4308   0022B0                     u7427:
  4309   0022B0  2EE8               	decfsz	wreg,f,c
  4310   0022B2  D7FE               	bra	u7427
  4311   0022B4  2E56               	decfsz	??_lcd_4bit_intialize^0,f,c
  4312   0022B6  D7FC               	bra	u7427
  4313   0022B8  C054  F04F         	movff	lcd_4bit_intialize@lcd,lcd_4bit_send_command@lcd
  4314   0022BC  C055  F050         	movff	lcd_4bit_intialize@lcd+1,lcd_4bit_send_command@lcd+1
  4315   0022C0  0E38               	movlw	56
  4316   0022C2  6E51               	movwf	lcd_4bit_send_command@command^0,c
  4317   0022C4  EC7F  F015         	call	_lcd_4bit_send_command	;wreg free
  4318   0022C8                     
  4319                           ;mcal_layer/ecu_lcd.c: 33:         _delay((unsigned long)((5)*(20000000/4000.0)));
  4320   0022C8  0E21               	movlw	33
  4321   0022CA  6E56               	movwf	??_lcd_4bit_intialize^0,c
  4322   0022CC  0E76               	movlw	118
  4323   0022CE                     u7437:
  4324   0022CE  2EE8               	decfsz	wreg,f,c
  4325   0022D0  D7FE               	bra	u7437
  4326   0022D2  2E56               	decfsz	??_lcd_4bit_intialize^0,f,c
  4327   0022D4  D7FC               	bra	u7437
  4328   0022D6  D000               	nop2	
  4329   0022D8  C054  F04F         	movff	lcd_4bit_intialize@lcd,lcd_4bit_send_command@lcd
  4330   0022DC  C055  F050         	movff	lcd_4bit_intialize@lcd+1,lcd_4bit_send_command@lcd+1
  4331   0022E0  0E38               	movlw	56
  4332   0022E2  6E51               	movwf	lcd_4bit_send_command@command^0,c
  4333   0022E4  EC7F  F015         	call	_lcd_4bit_send_command	;wreg free
  4334   0022E8                     
  4335                           ;mcal_layer/ecu_lcd.c: 35:                 _delay((unsigned long)((150)*(20000000/400000
      +                          0.0)));
  4336   0022E8  0EFA               	movlw	250
  4337   0022EA                     u7447:
  4338   0022EA  2EE8               	decfsz	wreg,f,c
  4339   0022EC  D7FE               	bra	u7447
  4340   0022EE  C054  F04F         	movff	lcd_4bit_intialize@lcd,lcd_4bit_send_command@lcd
  4341   0022F2  C055  F050         	movff	lcd_4bit_intialize@lcd+1,lcd_4bit_send_command@lcd+1
  4342   0022F6  0E38               	movlw	56
  4343   0022F8  6E51               	movwf	lcd_4bit_send_command@command^0,c
  4344   0022FA  EC7F  F015         	call	_lcd_4bit_send_command	;wreg free
  4345   0022FE  C054  F04F         	movff	lcd_4bit_intialize@lcd,lcd_4bit_send_command@lcd
  4346   002302  C055  F050         	movff	lcd_4bit_intialize@lcd+1,lcd_4bit_send_command@lcd+1
  4347   002306  0E01               	movlw	1
  4348   002308  6E51               	movwf	lcd_4bit_send_command@command^0,c
  4349   00230A  EC7F  F015         	call	_lcd_4bit_send_command	;wreg free
  4350   00230E  C054  F04F         	movff	lcd_4bit_intialize@lcd,lcd_4bit_send_command@lcd
  4351   002312  C055  F050         	movff	lcd_4bit_intialize@lcd+1,lcd_4bit_send_command@lcd+1
  4352   002316  0E02               	movlw	2
  4353   002318  6E51               	movwf	lcd_4bit_send_command@command^0,c
  4354   00231A  EC7F  F015         	call	_lcd_4bit_send_command	;wreg free
  4355   00231E  C054  F04F         	movff	lcd_4bit_intialize@lcd,lcd_4bit_send_command@lcd
  4356   002322  C055  F050         	movff	lcd_4bit_intialize@lcd+1,lcd_4bit_send_command@lcd+1
  4357   002326  0E06               	movlw	6
  4358   002328  6E51               	movwf	lcd_4bit_send_command@command^0,c
  4359   00232A  EC7F  F015         	call	_lcd_4bit_send_command	;wreg free
  4360   00232E  C054  F04F         	movff	lcd_4bit_intialize@lcd,lcd_4bit_send_command@lcd
  4361   002332  C055  F050         	movff	lcd_4bit_intialize@lcd+1,lcd_4bit_send_command@lcd+1
  4362   002336  0E0C               	movlw	12
  4363   002338  6E51               	movwf	lcd_4bit_send_command@command^0,c
  4364   00233A  EC7F  F015         	call	_lcd_4bit_send_command	;wreg free
  4365   00233E  C054  F04F         	movff	lcd_4bit_intialize@lcd,lcd_4bit_send_command@lcd
  4366   002342  C055  F050         	movff	lcd_4bit_intialize@lcd+1,lcd_4bit_send_command@lcd+1
  4367   002346  0E28               	movlw	40
  4368   002348  6E51               	movwf	lcd_4bit_send_command@command^0,c
  4369   00234A  EC7F  F015         	call	_lcd_4bit_send_command	;wreg free
  4370   00234E                     
  4371                           ;mcal_layer/ecu_lcd.c: 42:         ret = lcd_4bit_send_command(lcd, 0x80);
  4372   00234E  C054  F04F         	movff	lcd_4bit_intialize@lcd,lcd_4bit_send_command@lcd
  4373   002352  C055  F050         	movff	lcd_4bit_intialize@lcd+1,lcd_4bit_send_command@lcd+1
  4374   002356  0E80               	movlw	128
  4375   002358  6E51               	movwf	lcd_4bit_send_command@command^0,c
  4376   00235A  EC7F  F015         	call	_lcd_4bit_send_command	;wreg free
  4377   00235E  6E59               	movwf	lcd_4bit_intialize@ret^0,c
  4378   002360                     l7553:
  4379                           
  4380                           ;mcal_layer/ecu_lcd.c: 44:     return ret;
  4381   002360  5059               	movf	lcd_4bit_intialize@ret^0,w,c
  4382   002362  0012               	return		;funcret
  4383   002364                     __end_of_lcd_4bit_intialize:
  4384                           	callstack 0
  4385                           
  4386 ;; *************** function _lcd_4bit_send_command *****************
  4387 ;; Defined at:
  4388 ;;		line 47 in file "mcal_layer/ecu_lcd.c"
  4389 ;; Parameters:    Size  Location     Type
  4390 ;;  lcd             2   15[COMRAM] PTR const struct .
  4391 ;;		 -> lcd_1(6), 
  4392 ;;  command         1   17[COMRAM] unsigned char 
  4393 ;; Auto vars:     Size  Location     Type
  4394 ;;  ret             1   19[COMRAM] unsigned char 
  4395 ;;  l_data_pins_    1   18[COMRAM] unsigned char 
  4396 ;; Return value:  Size  Location     Type
  4397 ;;                  1    wreg      unsigned char 
  4398 ;; Registers used:
  4399 ;;		wreg, fsr2l, fsr2h, status,2, status,0, prodl, prodh, cstack
  4400 ;; Tracked objects:
  4401 ;;		On entry : 0/0
  4402 ;;		On exit  : 0/0
  4403 ;;		Unchanged: 0/0
  4404 ;; Data sizes:     COMRAM   BANK0   BANK1   BANK2   BANK3   BANK4   BANK5   BANK6   BANK7   BANK8   BANK9  BANK10  BANK1
      +1  BANK12  BANK13  BANK14  BANK15
  4405 ;;      Params:         3       0       0       0       0       0       0       0       0       0       0       0       
      +0       0       0       0       0
  4406 ;;      Locals:         2       0       0       0       0       0       0       0       0       0       0       0       
      +0       0       0       0       0
  4407 ;;      Temps:          0       0       0       0       0       0       0       0       0       0       0       0       
      +0       0       0       0       0
  4408 ;;      Totals:         5       0       0       0       0       0       0       0       0       0       0       0       
      +0       0       0       0       0
  4409 ;;Total ram usage:        5 bytes
  4410 ;; Hardware stack levels used: 1
  4411 ;; Hardware stack levels required when called: 4
  4412 ;; This function calls:
  4413 ;;		_gpio_pin_write_logic
  4414 ;;		_lcd_4bit_send_enable_signal
  4415 ;;		_lcd_send_4bits
  4416 ;; This function is called by:
  4417 ;;		_lcd_4bit_intialize
  4418 ;;		_lcd_4bit_set_cursor
  4419 ;;		_main
  4420 ;;		_lcd_4bit_send_custom_char
  4421 ;; This function uses a non-reentrant model
  4422 ;;
  4423                           
  4424                           	psect	text16
  4425   002AFE                     __ptext16:
  4426                           	callstack 0
  4427   002AFE                     _lcd_4bit_send_command:
  4428                           	callstack 24
  4429   002AFE                     
  4430                           ;mcal_layer/ecu_lcd.c: 50:      uint8 l_data_pins_counter = 0;
  4431   002AFE  0E00               	movlw	0
  4432   002B00  6E52               	movwf	lcd_4bit_send_command@l_data_pins_counter^0,c
  4433   002B02                     
  4434                           ;mcal_layer/ecu_lcd.c: 52:     if(((void*)0) == lcd){
  4435   002B02  504F               	movf	lcd_4bit_send_command@lcd^0,w,c
  4436   002B04  1050               	iorwf	(lcd_4bit_send_command@lcd+1)^0,w,c
  4437   002B06  A4D8               	btfss	status,2,c
  4438   002B08  EF88  F015         	goto	u6051
  4439   002B0C  EF8A  F015         	goto	u6050
  4440   002B10                     u6051:
  4441   002B10  EF8E  F015         	goto	l7443
  4442   002B14                     u6050:
  4443   002B14                     
  4444                           ;mcal_layer/ecu_lcd.c: 53:         ret = ( Std_returntype)0x00;
  4445   002B14  0E00               	movlw	0
  4446   002B16  6E53               	movwf	lcd_4bit_send_command@ret^0,c
  4447                           
  4448                           ;mcal_layer/ecu_lcd.c: 54:     }
  4449   002B18  EFB8  F015         	goto	l7445
  4450   002B1C                     l7443:
  4451                           
  4452                           ;mcal_layer/ecu_lcd.c: 59:         ret = gpio_pin_write_logic(&(lcd->lcd_rs), LOW);
  4453   002B1C  C04F  F041         	movff	lcd_4bit_send_command@lcd,gpio_pin_write_logic@pin_config
  4454   002B20  C050  F042         	movff	lcd_4bit_send_command@lcd+1,gpio_pin_write_logic@pin_config+1
  4455   002B24  0E00               	movlw	0
  4456   002B26  6E43               	movwf	gpio_pin_write_logic@logic^0,c
  4457   002B28  EC87  F010         	call	_gpio_pin_write_logic	;wreg free
  4458   002B2C  6E53               	movwf	lcd_4bit_send_command@ret^0,c
  4459                           
  4460                           ;mcal_layer/ecu_lcd.c: 61:         ret = lcd_send_4bits(lcd, command >> 4);
  4461   002B2E  C04F  F04B         	movff	lcd_4bit_send_command@lcd,lcd_send_4bits@lcd
  4462   002B32  C050  F04C         	movff	lcd_4bit_send_command@lcd+1,lcd_send_4bits@lcd+1
  4463   002B36  3851               	swapf	lcd_4bit_send_command@command^0,w,c
  4464   002B38  0B0F               	andlw	15
  4465   002B3A  6E4D               	movwf	lcd_send_4bits@_data_command^0,c
  4466   002B3C  EC2A  F016         	call	_lcd_send_4bits	;wreg free
  4467   002B40  6E53               	movwf	lcd_4bit_send_command@ret^0,c
  4468                           
  4469                           ;mcal_layer/ecu_lcd.c: 63:         ret = lcd_4bit_send_enable_signal(lcd);
  4470   002B42  C04F  F04B         	movff	lcd_4bit_send_command@lcd,lcd_4bit_send_enable_signal@lcd
  4471   002B46  C050  F04C         	movff	lcd_4bit_send_command@lcd+1,lcd_4bit_send_enable_signal@lcd+1
  4472   002B4A  ECAB  F017         	call	_lcd_4bit_send_enable_signal	;wreg free
  4473   002B4E  6E53               	movwf	lcd_4bit_send_command@ret^0,c
  4474                           
  4475                           ;mcal_layer/ecu_lcd.c: 65:         ret = lcd_send_4bits(lcd, command);
  4476   002B50  C04F  F04B         	movff	lcd_4bit_send_command@lcd,lcd_send_4bits@lcd
  4477   002B54  C050  F04C         	movff	lcd_4bit_send_command@lcd+1,lcd_send_4bits@lcd+1
  4478   002B58  C051  F04D         	movff	lcd_4bit_send_command@command,lcd_send_4bits@_data_command
  4479   002B5C  EC2A  F016         	call	_lcd_send_4bits	;wreg free
  4480   002B60  6E53               	movwf	lcd_4bit_send_command@ret^0,c
  4481                           
  4482                           ;mcal_layer/ecu_lcd.c: 67:         ret = lcd_4bit_send_enable_signal(lcd);
  4483   002B62  C04F  F04B         	movff	lcd_4bit_send_command@lcd,lcd_4bit_send_enable_signal@lcd
  4484   002B66  C050  F04C         	movff	lcd_4bit_send_command@lcd+1,lcd_4bit_send_enable_signal@lcd+1
  4485   002B6A  ECAB  F017         	call	_lcd_4bit_send_enable_signal	;wreg free
  4486   002B6E  6E53               	movwf	lcd_4bit_send_command@ret^0,c
  4487   002B70                     l7445:
  4488                           
  4489                           ;mcal_layer/ecu_lcd.c: 71:     return ret;
  4490   002B70  5053               	movf	lcd_4bit_send_command@ret^0,w,c
  4491   002B72  0012               	return		;funcret
  4492   002B74                     __end_of_lcd_4bit_send_command:
  4493                           	callstack 0
  4494                           
  4495 ;; *************** function _lcd_send_4bits *****************
  4496 ;; Defined at:
  4497 ;;		line 361 in file "mcal_layer/ecu_lcd.c"
  4498 ;; Parameters:    Size  Location     Type
  4499 ;;  lcd             2   11[COMRAM] PTR const struct .
  4500 ;;		 -> lcd_1(6), 
  4501 ;;  _data_comman    1   13[COMRAM] unsigned char 
  4502 ;; Auto vars:     Size  Location     Type
  4503 ;;  ret             1   14[COMRAM] unsigned char 
  4504 ;; Return value:  Size  Location     Type
  4505 ;;                  1    wreg      unsigned char 
  4506 ;; Registers used:
  4507 ;;		wreg, fsr2l, fsr2h, status,2, status,0, prodl, prodh, cstack
  4508 ;; Tracked objects:
  4509 ;;		On entry : 0/0
  4510 ;;		On exit  : 0/0
  4511 ;;		Unchanged: 0/0
  4512 ;; Data sizes:     COMRAM   BANK0   BANK1   BANK2   BANK3   BANK4   BANK5   BANK6   BANK7   BANK8   BANK9  BANK10  BANK1
      +1  BANK12  BANK13  BANK14  BANK15
  4513 ;;      Params:         3       0       0       0       0       0       0       0       0       0       0       0       
      +0       0       0       0       0
  4514 ;;      Locals:         1       0       0       0       0       0       0       0       0       0       0       0       
      +0       0       0       0       0
  4515 ;;      Temps:          0       0       0       0       0       0       0       0       0       0       0       0       
      +0       0       0       0       0
  4516 ;;      Totals:         4       0       0       0       0       0       0       0       0       0       0       0       
      +0       0       0       0       0
  4517 ;;Total ram usage:        4 bytes
  4518 ;; Hardware stack levels used: 1
  4519 ;; Hardware stack levels required when called: 3
  4520 ;; This function calls:
  4521 ;;		_gpio_pin_write_logic
  4522 ;; This function is called by:
  4523 ;;		_lcd_4bit_send_command
  4524 ;;		_lcd_4bit_send_char_data
  4525 ;; This function uses a non-reentrant model
  4526 ;;
  4527                           
  4528                           	psect	text17
  4529   002C54                     __ptext17:
  4530                           	callstack 0
  4531   002C54                     _lcd_send_4bits:
  4532                           	callstack 24
  4533   002C54  0E02               	movlw	2
  4534   002C56  244B               	addwf	lcd_send_4bits@lcd^0,w,c
  4535   002C58  6E41               	movwf	gpio_pin_write_logic@pin_config^0,c
  4536   002C5A  0E00               	movlw	0
  4537   002C5C  204C               	addwfc	(lcd_send_4bits@lcd+1)^0,w,c
  4538   002C5E  6E42               	movwf	(gpio_pin_write_logic@pin_config+1)^0,c
  4539   002C60  504D               	movf	lcd_send_4bits@_data_command^0,w,c
  4540   002C62  0B01               	andlw	1
  4541   002C64  6E43               	movwf	gpio_pin_write_logic@logic^0,c
  4542   002C66  EC87  F010         	call	_gpio_pin_write_logic	;wreg free
  4543   002C6A  0E03               	movlw	3
  4544   002C6C  244B               	addwf	lcd_send_4bits@lcd^0,w,c
  4545   002C6E  6E41               	movwf	gpio_pin_write_logic@pin_config^0,c
  4546   002C70  0E00               	movlw	0
  4547   002C72  204C               	addwfc	(lcd_send_4bits@lcd+1)^0,w,c
  4548   002C74  6E42               	movwf	(gpio_pin_write_logic@pin_config+1)^0,c
  4549   002C76  90D8               	bcf	status,0,c
  4550   002C78  304D               	rrcf	lcd_send_4bits@_data_command^0,w,c
  4551   002C7A  0B01               	andlw	1
  4552   002C7C  6E43               	movwf	gpio_pin_write_logic@logic^0,c
  4553   002C7E  EC87  F010         	call	_gpio_pin_write_logic	;wreg free
  4554   002C82  0E04               	movlw	4
  4555   002C84  244B               	addwf	lcd_send_4bits@lcd^0,w,c
  4556   002C86  6E41               	movwf	gpio_pin_write_logic@pin_config^0,c
  4557   002C88  0E00               	movlw	0
  4558   002C8A  204C               	addwfc	(lcd_send_4bits@lcd+1)^0,w,c
  4559   002C8C  6E42               	movwf	(gpio_pin_write_logic@pin_config+1)^0,c
  4560   002C8E  404D               	rrncf	lcd_send_4bits@_data_command^0,w,c
  4561   002C90  42E8               	rrncf	wreg,f,c
  4562   002C92  0B3F               	andlw	63
  4563   002C94  0B01               	andlw	1
  4564   002C96  6E43               	movwf	gpio_pin_write_logic@logic^0,c
  4565   002C98  EC87  F010         	call	_gpio_pin_write_logic	;wreg free
  4566   002C9C                     
  4567                           ;mcal_layer/ecu_lcd.c: 366:     ret = gpio_pin_write_logic(&(lcd->lcd_data[3]), (_data_c
      +                          ommand >> 3) & (uint8)0x01);
  4568   002C9C  0E05               	movlw	5
  4569   002C9E  244B               	addwf	lcd_send_4bits@lcd^0,w,c
  4570   002CA0  6E41               	movwf	gpio_pin_write_logic@pin_config^0,c
  4571   002CA2  0E00               	movlw	0
  4572   002CA4  204C               	addwfc	(lcd_send_4bits@lcd+1)^0,w,c
  4573   002CA6  6E42               	movwf	(gpio_pin_write_logic@pin_config+1)^0,c
  4574   002CA8  384D               	swapf	lcd_send_4bits@_data_command^0,w,c
  4575   002CAA  46E8               	rlncf	wreg,f,c
  4576   002CAC  0B1F               	andlw	31
  4577   002CAE  0B01               	andlw	1
  4578   002CB0  6E43               	movwf	gpio_pin_write_logic@logic^0,c
  4579   002CB2  EC87  F010         	call	_gpio_pin_write_logic	;wreg free
  4580   002CB6  6E4E               	movwf	lcd_send_4bits@ret^0,c
  4581                           
  4582                           ;mcal_layer/ecu_lcd.c: 367:     return ret;
  4583   002CB8  504E               	movf	lcd_send_4bits@ret^0,w,c
  4584   002CBA  0012               	return		;funcret
  4585   002CBC                     __end_of_lcd_send_4bits:
  4586                           	callstack 0
  4587                           
  4588 ;; *************** function _lcd_4bit_send_enable_signal *****************
  4589 ;; Defined at:
  4590 ;;		line 377 in file "mcal_layer/ecu_lcd.c"
  4591 ;; Parameters:    Size  Location     Type
  4592 ;;  lcd             2   11[COMRAM] PTR const struct .
  4593 ;;		 -> lcd_1(6), 
  4594 ;; Auto vars:     Size  Location     Type
  4595 ;;  ret             1   13[COMRAM] unsigned char 
  4596 ;; Return value:  Size  Location     Type
  4597 ;;                  1    wreg      unsigned char 
  4598 ;; Registers used:
  4599 ;;		wreg, fsr2l, fsr2h, status,2, status,0, prodl, prodh, cstack
  4600 ;; Tracked objects:
  4601 ;;		On entry : 0/0
  4602 ;;		On exit  : 0/0
  4603 ;;		Unchanged: 0/0
  4604 ;; Data sizes:     COMRAM   BANK0   BANK1   BANK2   BANK3   BANK4   BANK5   BANK6   BANK7   BANK8   BANK9  BANK10  BANK1
      +1  BANK12  BANK13  BANK14  BANK15
  4605 ;;      Params:         2       0       0       0       0       0       0       0       0       0       0       0       
      +0       0       0       0       0
  4606 ;;      Locals:         1       0       0       0       0       0       0       0       0       0       0       0       
      +0       0       0       0       0
  4607 ;;      Temps:          0       0       0       0       0       0       0       0       0       0       0       0       
      +0       0       0       0       0
  4608 ;;      Totals:         3       0       0       0       0       0       0       0       0       0       0       0       
      +0       0       0       0       0
  4609 ;;Total ram usage:        3 bytes
  4610 ;; Hardware stack levels used: 1
  4611 ;; Hardware stack levels required when called: 3
  4612 ;; This function calls:
  4613 ;;		_gpio_pin_write_logic
  4614 ;; This function is called by:
  4615 ;;		_lcd_4bit_send_command
  4616 ;;		_lcd_4bit_send_char_data
  4617 ;; This function uses a non-reentrant model
  4618 ;;
  4619                           
  4620                           	psect	text18
  4621   002F56                     __ptext18:
  4622                           	callstack 0
  4623   002F56                     _lcd_4bit_send_enable_signal:
  4624                           	callstack 24
  4625   002F56  0E01               	movlw	1
  4626   002F58  244B               	addwf	lcd_4bit_send_enable_signal@lcd^0,w,c
  4627   002F5A  6E41               	movwf	gpio_pin_write_logic@pin_config^0,c
  4628   002F5C  0E00               	movlw	0
  4629   002F5E  204C               	addwfc	(lcd_4bit_send_enable_signal@lcd+1)^0,w,c
  4630   002F60  6E42               	movwf	(gpio_pin_write_logic@pin_config+1)^0,c
  4631   002F62  0E01               	movlw	1
  4632   002F64  6E43               	movwf	gpio_pin_write_logic@logic^0,c
  4633   002F66  EC87  F010         	call	_gpio_pin_write_logic	;wreg free
  4634   002F6A                     
  4635                           ;mcal_layer/ecu_lcd.c: 380:     _delay((unsigned long)((5)*(20000000/4000000.0)));
  4636   002F6A  0E08               	movlw	8
  4637   002F6C                     u7457:
  4638   002F6C  2EE8               	decfsz	wreg,f,c
  4639   002F6E  D7FE               	bra	u7457
  4640   002F70  F000               	nop	
  4641   002F72                     
  4642                           ;mcal_layer/ecu_lcd.c: 381:     ret = gpio_pin_write_logic(&(lcd->lcd_en), LOW);
  4643   002F72  0E01               	movlw	1
  4644   002F74  244B               	addwf	lcd_4bit_send_enable_signal@lcd^0,w,c
  4645   002F76  6E41               	movwf	gpio_pin_write_logic@pin_config^0,c
  4646   002F78  0E00               	movlw	0
  4647   002F7A  204C               	addwfc	(lcd_4bit_send_enable_signal@lcd+1)^0,w,c
  4648   002F7C  6E42               	movwf	(gpio_pin_write_logic@pin_config+1)^0,c
  4649   002F7E  0E00               	movlw	0
  4650   002F80  6E43               	movwf	gpio_pin_write_logic@logic^0,c
  4651   002F82  EC87  F010         	call	_gpio_pin_write_logic	;wreg free
  4652   002F86  6E4D               	movwf	lcd_4bit_send_enable_signal@ret^0,c
  4653   002F88                     
  4654                           ;mcal_layer/ecu_lcd.c: 382:     return ret;
  4655   002F88  504D               	movf	lcd_4bit_send_enable_signal@ret^0,w,c
  4656   002F8A  0012               	return		;funcret
  4657   002F8C                     __end_of_lcd_4bit_send_enable_signal:
  4658                           	callstack 0
  4659                           
  4660 ;; *************** function _keypad_initialize *****************
  4661 ;; Defined at:
  4662 ;;		line 18 in file "mcal_layer/ecu_keypad.c"
  4663 ;; Parameters:    Size  Location     Type
  4664 ;;  _keypad_obj     2   15[COMRAM] PTR const struct .
  4665 ;;		 -> keypad1(8), 
  4666 ;; Auto vars:     Size  Location     Type
  4667 ;;  columns_coun    1   21[COMRAM] unsigned char 
  4668 ;;  rows_counter    1   20[COMRAM] unsigned char 
  4669 ;;  ret             1   19[COMRAM] unsigned char 
  4670 ;; Return value:  Size  Location     Type
  4671 ;;                  1    wreg      unsigned char 
  4672 ;; Registers used:
  4673 ;;		wreg, fsr2l, fsr2h, status,2, status,0, prodl, prodh, cstack
  4674 ;; Tracked objects:
  4675 ;;		On entry : 0/0
  4676 ;;		On exit  : 0/0
  4677 ;;		Unchanged: 0/0
  4678 ;; Data sizes:     COMRAM   BANK0   BANK1   BANK2   BANK3   BANK4   BANK5   BANK6   BANK7   BANK8   BANK9  BANK10  BANK1
      +1  BANK12  BANK13  BANK14  BANK15
  4679 ;;      Params:         2       0       0       0       0       0       0       0       0       0       0       0       
      +0       0       0       0       0
  4680 ;;      Locals:         3       0       0       0       0       0       0       0       0       0       0       0       
      +0       0       0       0       0
  4681 ;;      Temps:          2       0       0       0       0       0       0       0       0       0       0       0       
      +0       0       0       0       0
  4682 ;;      Totals:         7       0       0       0       0       0       0       0       0       0       0       0       
      +0       0       0       0       0
  4683 ;;Total ram usage:        7 bytes
  4684 ;; Hardware stack levels used: 1
  4685 ;; Hardware stack levels required when called: 4
  4686 ;; This function calls:
  4687 ;;		_gpio_pin_direction_intialize
  4688 ;;		_gpio_pin_intialize
  4689 ;; This function is called by:
  4690 ;;		_application_intialize
  4691 ;; This function uses a non-reentrant model
  4692 ;;
  4693                           
  4694                           	psect	text19
  4695   0027A6                     __ptext19:
  4696                           	callstack 0
  4697   0027A6                     _keypad_initialize:
  4698                           	callstack 25
  4699   0027A6                     
  4700                           ;mcal_layer/ecu_keypad.c: 22:  uint8 rows_counter = 0, columns_counter = 0;
  4701   0027A6  0E00               	movlw	0
  4702   0027A8  6E54               	movwf	keypad_initialize@rows_counter^0,c
  4703   0027AA  0E00               	movlw	0
  4704   0027AC  6E55               	movwf	keypad_initialize@columns_counter^0,c
  4705   0027AE                     
  4706                           ;mcal_layer/ecu_keypad.c: 23:     if(((void*)0) == _keypad_obj){
  4707   0027AE  504F               	movf	keypad_initialize@_keypad_obj^0,w,c
  4708   0027B0  1050               	iorwf	(keypad_initialize@_keypad_obj+1)^0,w,c
  4709   0027B2  A4D8               	btfss	status,2,c
  4710   0027B4  EFDE  F013         	goto	u6251
  4711   0027B8  EFE0  F013         	goto	u6250
  4712   0027BC                     u6251:
  4713   0027BC  EFE4  F013         	goto	l7635
  4714   0027C0                     u6250:
  4715   0027C0                     
  4716                           ;mcal_layer/ecu_keypad.c: 24:         ret = ( Std_returntype)0x00;
  4717   0027C0  0E00               	movlw	0
  4718   0027C2  6E53               	movwf	keypad_initialize@ret^0,c
  4719                           
  4720                           ;mcal_layer/ecu_keypad.c: 25:     }
  4721   0027C4  EF11  F014         	goto	l7659
  4722   0027C8                     l7635:
  4723                           
  4724                           ;mcal_layer/ecu_keypad.c: 27:          for(rows_counter=0; rows_counter<4; rows_counter+
      +                          +){
  4725   0027C8  0E00               	movlw	0
  4726   0027CA  6E54               	movwf	keypad_initialize@rows_counter^0,c
  4727   0027CC                     l7641:
  4728   0027CC  5054               	movf	keypad_initialize@rows_counter^0,w,c
  4729   0027CE  244F               	addwf	keypad_initialize@_keypad_obj^0,w,c
  4730   0027D0  6E4B               	movwf	gpio_pin_intialize@pin_config^0,c
  4731   0027D2  0E00               	movlw	0
  4732   0027D4  2050               	addwfc	(keypad_initialize@_keypad_obj+1)^0,w,c
  4733   0027D6  6E4C               	movwf	(gpio_pin_intialize@pin_config+1)^0,c
  4734   0027D8  ECF4  F015         	call	_gpio_pin_intialize	;wreg free
  4735   0027DC                     
  4736                           ;mcal_layer/ecu_keypad.c: 29:         }
  4737   0027DC  2A54               	incf	keypad_initialize@rows_counter^0,f,c
  4738   0027DE  0E03               	movlw	3
  4739   0027E0  6454               	cpfsgt	keypad_initialize@rows_counter^0,c
  4740   0027E2  EFF5  F013         	goto	u6261
  4741   0027E6  EFF7  F013         	goto	u6260
  4742   0027EA                     u6261:
  4743   0027EA  EFE6  F013         	goto	l7641
  4744   0027EE                     u6260:
  4745   0027EE                     
  4746                           ;mcal_layer/ecu_keypad.c: 30:         for(columns_counter=0; columns_counter<4; columns_
      +                          counter++){
  4747   0027EE  0E00               	movlw	0
  4748   0027F0  6E55               	movwf	keypad_initialize@columns_counter^0,c
  4749   0027F2                     l7653:
  4750                           
  4751                           ;mcal_layer/ecu_keypad.c: 31:             ret = gpio_pin_direction_intialize(&(_keypad_o
      +                          bj->keypad_columns_pins[columns_counter]));
  4752   0027F2  5055               	movf	keypad_initialize@columns_counter^0,w,c
  4753   0027F4  244F               	addwf	keypad_initialize@_keypad_obj^0,w,c
  4754   0027F6  6E51               	movwf	??_keypad_initialize^0,c
  4755   0027F8  0E00               	movlw	0
  4756   0027FA  2050               	addwfc	(keypad_initialize@_keypad_obj+1)^0,w,c
  4757   0027FC  6E52               	movwf	(??_keypad_initialize+1)^0,c
  4758   0027FE  0E04               	movlw	4
  4759   002800  2451               	addwf	??_keypad_initialize^0,w,c
  4760   002802  6E41               	movwf	gpio_pin_direction_intialize@pin_config^0,c
  4761   002804  0E00               	movlw	0
  4762   002806  2052               	addwfc	(??_keypad_initialize+1)^0,w,c
  4763   002808  6E42               	movwf	(gpio_pin_direction_intialize@pin_config+1)^0,c
  4764   00280A  ECE5  F00F         	call	_gpio_pin_direction_intialize	;wreg free
  4765   00280E  6E53               	movwf	keypad_initialize@ret^0,c
  4766   002810                     
  4767                           ;mcal_layer/ecu_keypad.c: 32:         }
  4768   002810  2A55               	incf	keypad_initialize@columns_counter^0,f,c
  4769   002812  0E03               	movlw	3
  4770   002814  6455               	cpfsgt	keypad_initialize@columns_counter^0,c
  4771   002816  EF0F  F014         	goto	u6271
  4772   00281A  EF11  F014         	goto	u6270
  4773   00281E                     u6271:
  4774   00281E  EFF9  F013         	goto	l7653
  4775   002822                     u6270:
  4776   002822                     l7659:
  4777                           
  4778                           ;mcal_layer/ecu_keypad.c: 36:     return ret;
  4779   002822  5053               	movf	keypad_initialize@ret^0,w,c
  4780   002824  0012               	return		;funcret
  4781   002826                     __end_of_keypad_initialize:
  4782                           	callstack 0
  4783                           
  4784 ;; *************** function _gpio_pin_intialize *****************
  4785 ;; Defined at:
  4786 ;;		line 120 in file "mcal_layer/GPIO/hal_gpio.c"
  4787 ;; Parameters:    Size  Location     Type
  4788 ;;  pin_config      2   11[COMRAM] PTR const struct .
  4789 ;;		 -> seg_pin_1(1), seg_pin_2(1), seg_pin_3(1), seg_pin_4(1), 
  4790 ;;		 -> seg_pin_5(1), seg_pin_6(1), segment_1.segment_pins(4), segment_1(5), 
  4791 ;;		 -> keypad1.keypad_row_pins(4), keypad1(8), lcd_1.lcd_data(4), lcd_1(6), 
  4792 ;;		 -> relay_initialize@object(1), led_initialize@object(1), dc_motor_initialize@motor_con2(1), dc_motor_initialize@mot
      +or_con1(1), 
  4793 ;; Auto vars:     Size  Location     Type
  4794 ;;  ret             1   14[COMRAM] unsigned char 
  4795 ;; Return value:  Size  Location     Type
  4796 ;;                  1    wreg      unsigned char 
  4797 ;; Registers used:
  4798 ;;		wreg, fsr2l, fsr2h, status,2, status,0, prodl, prodh, cstack
  4799 ;; Tracked objects:
  4800 ;;		On entry : 0/0
  4801 ;;		On exit  : 0/0
  4802 ;;		Unchanged: 0/0
  4803 ;; Data sizes:     COMRAM   BANK0   BANK1   BANK2   BANK3   BANK4   BANK5   BANK6   BANK7   BANK8   BANK9  BANK10  BANK1
      +1  BANK12  BANK13  BANK14  BANK15
  4804 ;;      Params:         2       0       0       0       0       0       0       0       0       0       0       0       
      +0       0       0       0       0
  4805 ;;      Locals:         1       0       0       0       0       0       0       0       0       0       0       0       
      +0       0       0       0       0
  4806 ;;      Temps:          1       0       0       0       0       0       0       0       0       0       0       0       
      +0       0       0       0       0
  4807 ;;      Totals:         4       0       0       0       0       0       0       0       0       0       0       0       
      +0       0       0       0       0
  4808 ;;Total ram usage:        4 bytes
  4809 ;; Hardware stack levels used: 1
  4810 ;; Hardware stack levels required when called: 3
  4811 ;; This function calls:
  4812 ;;		_gpio_pin_direction_intialize
  4813 ;;		_gpio_pin_write_logic
  4814 ;; This function is called by:
  4815 ;;		_seven_segement_intialize
  4816 ;;		_lcd_4bit_intialize
  4817 ;;		_keypad_initialize
  4818 ;;		_led_initialize
  4819 ;;		_application_intialize
  4820 ;;		_dc_motor_initialize
  4821 ;;		_lcd_8bit_intialize
  4822 ;;		_relay_initialize
  4823 ;;		_CCP_Init
  4824 ;; This function uses a non-reentrant model
  4825 ;;
  4826                           
  4827                           	psect	text20
  4828   002BE8                     __ptext20:
  4829                           	callstack 0
  4830   002BE8                     _gpio_pin_intialize:
  4831                           	callstack 25
  4832   002BE8                     
  4833                           ;mcal_layer/GPIO/hal_gpio.c: 123:           if(((void*)0)==pin_config|| pin_config->pin>
      +                           8 -1 ){
  4834   002BE8  504B               	movf	gpio_pin_intialize@pin_config^0,w,c
  4835   002BEA  104C               	iorwf	(gpio_pin_intialize@pin_config+1)^0,w,c
  4836   002BEC  B4D8               	btfsc	status,2,c
  4837   002BEE  EFFB  F015         	goto	u6031
  4838   002BF2  EFFD  F015         	goto	u6030
  4839   002BF6                     u6031:
  4840   002BF6  EF0E  F016         	goto	l7429
  4841   002BFA                     u6030:
  4842   002BFA  C04B  FFD9         	movff	gpio_pin_intialize@pin_config,fsr2l
  4843   002BFE  C04C  FFDA         	movff	gpio_pin_intialize@pin_config+1,fsr2h
  4844   002C02  30DF               	rrcf	223,w,c
  4845   002C04  32E8               	rrcf	wreg,f,c
  4846   002C06  32E8               	rrcf	wreg,f,c
  4847   002C08  0B07               	andlw	7
  4848   002C0A  6E4D               	movwf	??_gpio_pin_intialize^0,c
  4849   002C0C  0E07               	movlw	7
  4850   002C0E  644D               	cpfsgt	??_gpio_pin_intialize^0,c
  4851   002C10  EF0C  F016         	goto	u6041
  4852   002C14  EF0E  F016         	goto	u6040
  4853   002C18                     u6041:
  4854   002C18  EF12  F016         	goto	l7431
  4855   002C1C                     u6040:
  4856   002C1C                     l7429:
  4857                           
  4858                           ;mcal_layer/GPIO/hal_gpio.c: 124:              ret=( Std_returntype)0x00 ; }
  4859   002C1C  0E00               	movlw	0
  4860   002C1E  6E4E               	movwf	gpio_pin_intialize@ret^0,c
  4861   002C20  EF28  F016         	goto	l7433
  4862   002C24                     l7431:
  4863                           
  4864                           ;mcal_layer/GPIO/hal_gpio.c: 126:               ret =gpio_pin_direction_intialize(pin_co
      +                          nfig);
  4865   002C24  C04B  F041         	movff	gpio_pin_intialize@pin_config,gpio_pin_direction_intialize@pin_config
  4866   002C28  C04C  F042         	movff	gpio_pin_intialize@pin_config+1,gpio_pin_direction_intialize@pin_config+1
  4867   002C2C  ECE5  F00F         	call	_gpio_pin_direction_intialize	;wreg free
  4868   002C30  6E4E               	movwf	gpio_pin_intialize@ret^0,c
  4869                           
  4870                           ;mcal_layer/GPIO/hal_gpio.c: 127:               ret=gpio_pin_write_logic(pin_config,pin_
      +                          config->logic);
  4871   002C32  C04B  F041         	movff	gpio_pin_intialize@pin_config,gpio_pin_write_logic@pin_config
  4872   002C36  C04C  F042         	movff	gpio_pin_intialize@pin_config+1,gpio_pin_write_logic@pin_config+1
  4873   002C3A  C04B  FFD9         	movff	gpio_pin_intialize@pin_config,fsr2l
  4874   002C3E  C04C  FFDA         	movff	gpio_pin_intialize@pin_config+1,fsr2h
  4875   002C42  0E00               	movlw	0
  4876   002C44  BEDF               	btfsc	indf2,7,c
  4877   002C46  0E01               	movlw	1
  4878   002C48  6E43               	movwf	gpio_pin_write_logic@logic^0,c
  4879   002C4A  EC87  F010         	call	_gpio_pin_write_logic	;wreg free
  4880   002C4E  6E4E               	movwf	gpio_pin_intialize@ret^0,c
  4881   002C50                     l7433:
  4882                           
  4883                           ;mcal_layer/GPIO/hal_gpio.c: 135:     return ret;
  4884   002C50  504E               	movf	gpio_pin_intialize@ret^0,w,c
  4885   002C52  0012               	return		;funcret
  4886   002C54                     __end_of_gpio_pin_intialize:
  4887                           	callstack 0
  4888                           
  4889 ;; *************** function _gpio_pin_write_logic *****************
  4890 ;; Defined at:
  4891 ;;		line 63 in file "mcal_layer/GPIO/hal_gpio.c"
  4892 ;; Parameters:    Size  Location     Type
  4893 ;;  pin_config      2    1[COMRAM] PTR const struct .
  4894 ;;		 -> seg_pin_1(1), seg_pin_2(1), seg_pin_3(1), seg_pin_4(1), 
  4895 ;;		 -> seg_pin_5(1), seg_pin_6(1), segment_1.segment_pins(4), segment_1(5), 
  4896 ;;		 -> keypad1.keypad_row_pins(4), keypad1(8), lcd_1.lcd_data(4), lcd_1(6), 
  4897 ;;		 -> relay_turn_off@object(1), relay_turn_on@object(1), relay_initialize@object(1), led_turn_off@object(1), 
  4898 ;;		 -> led_turn_on@object(1), led_initialize@object(1), dc_motor_stop@motor_con2(1), dc_motor_stop@motor_con1(1), 
  4899 ;;		 -> dc_motor_move_left@motor_con2(1), dc_motor_move_left@motor_con1(1), dc_motor_move_right@motor_con2(1), dc_motor_
      +move_right@motor_con1(1), 
  4900 ;;		 -> dc_motor_initialize@motor_con2(1), dc_motor_initialize@motor_con1(1), 
  4901 ;;  logic           1    3[COMRAM] enum E2968
  4902 ;; Auto vars:     Size  Location     Type
  4903 ;;  ret             1   10[COMRAM] unsigned char 
  4904 ;; Return value:  Size  Location     Type
  4905 ;;                  1    wreg      unsigned char 
  4906 ;; Registers used:
  4907 ;;		wreg, fsr2l, fsr2h, status,2, status,0, prodl, prodh
  4908 ;; Tracked objects:
  4909 ;;		On entry : 0/0
  4910 ;;		On exit  : 0/0
  4911 ;;		Unchanged: 0/0
  4912 ;; Data sizes:     COMRAM   BANK0   BANK1   BANK2   BANK3   BANK4   BANK5   BANK6   BANK7   BANK8   BANK9  BANK10  BANK1
      +1  BANK12  BANK13  BANK14  BANK15
  4913 ;;      Params:         3       0       0       0       0       0       0       0       0       0       0       0       
      +0       0       0       0       0
  4914 ;;      Locals:         1       0       0       0       0       0       0       0       0       0       0       0       
      +0       0       0       0       0
  4915 ;;      Temps:          6       0       0       0       0       0       0       0       0       0       0       0       
      +0       0       0       0       0
  4916 ;;      Totals:        10       0       0       0       0       0       0       0       0       0       0       0       
      +0       0       0       0       0
  4917 ;;Total ram usage:       10 bytes
  4918 ;; Hardware stack levels used: 1
  4919 ;; Hardware stack levels required when called: 2
  4920 ;; This function calls:
  4921 ;;		Nothing
  4922 ;; This function is called by:
  4923 ;;		_seven_segement_write_number
  4924 ;;		_lcd_4bit_send_command
  4925 ;;		_lcd_4bit_send_char_data
  4926 ;;		_lcd_send_4bits
  4927 ;;		_lcd_4bit_send_enable_signal
  4928 ;;		_keypad_get_value
  4929 ;;		_keypad_read_switch
  4930 ;;		_keypad_get_value_blocking
  4931 ;;		_led_turn_on
  4932 ;;		_led_turn_off
  4933 ;;		_gpio_pin_intialize
  4934 ;;		_main
  4935 ;;		_dc_motor_move_right
  4936 ;;		_dc_motor_move_left
  4937 ;;		_dc_motor_stop
  4938 ;;		_lcd_8bit_send_command
  4939 ;;		_lcd_8bit_send_char_data
  4940 ;;		_lcd_8bit_send_enable_signal
  4941 ;;		_relay_turn_on
  4942 ;;		_relay_turn_off
  4943 ;; This function uses a non-reentrant model
  4944 ;;
  4945                           
  4946                           	psect	text21
  4947   00210E                     __ptext21:
  4948                           	callstack 0
  4949   00210E                     _gpio_pin_write_logic:
  4950                           	callstack 27
  4951   00210E                     
  4952                           ;mcal_layer/GPIO/hal_gpio.c: 64:     Std_returntype ret = ( Std_returntype)0x01 ;
  4953   00210E  0E01               	movlw	1
  4954   002110  6E4A               	movwf	gpio_pin_write_logic@ret^0,c
  4955   002112                     
  4956                           ;mcal_layer/GPIO/hal_gpio.c: 65:           if(((void*)0)==pin_config || pin_config->pin>
      +                           8 -1 ){
  4957   002112  5041               	movf	gpio_pin_write_logic@pin_config^0,w,c
  4958   002114  1042               	iorwf	(gpio_pin_write_logic@pin_config+1)^0,w,c
  4959   002116  B4D8               	btfsc	status,2,c
  4960   002118  EF90  F010         	goto	u5931
  4961   00211C  EF92  F010         	goto	u5930
  4962   002120                     u5931:
  4963   002120  EFA3  F010         	goto	l7357
  4964   002124                     u5930:
  4965   002124  C041  FFD9         	movff	gpio_pin_write_logic@pin_config,fsr2l
  4966   002128  C042  FFDA         	movff	gpio_pin_write_logic@pin_config+1,fsr2h
  4967   00212C  30DF               	rrcf	223,w,c
  4968   00212E  32E8               	rrcf	wreg,f,c
  4969   002130  32E8               	rrcf	wreg,f,c
  4970   002132  0B07               	andlw	7
  4971   002134  6E44               	movwf	??_gpio_pin_write_logic^0,c
  4972   002136  0E07               	movlw	7
  4973   002138  6444               	cpfsgt	??_gpio_pin_write_logic^0,c
  4974   00213A  EFA1  F010         	goto	u5941
  4975   00213E  EFA3  F010         	goto	u5940
  4976   002142                     u5941:
  4977   002142  EF06  F011         	goto	l7365
  4978   002146                     u5940:
  4979   002146                     l7357:
  4980                           
  4981                           ;mcal_layer/GPIO/hal_gpio.c: 66:              ret= ( Std_returntype)0x00 ; }
  4982   002146  0E00               	movlw	0
  4983   002148  6E4A               	movwf	gpio_pin_write_logic@ret^0,c
  4984   00214A  EF1B  F011         	goto	l7367
  4985   00214E                     l7359:
  4986                           
  4987                           ;mcal_layer/GPIO/hal_gpio.c: 71:                   *lat_register[pin_config->port] &=~(1
      +                           <<pin_config->pin);
  4988   00214E  C041  FFD9         	movff	gpio_pin_write_logic@pin_config,fsr2l
  4989   002152  C042  FFDA         	movff	gpio_pin_write_logic@pin_config+1,fsr2h
  4990   002156  30DF               	rrcf	223,w,c
  4991   002158  32E8               	rrcf	wreg,f,c
  4992   00215A  32E8               	rrcf	wreg,f,c
  4993   00215C  0B07               	andlw	7
  4994   00215E  6E44               	movwf	??_gpio_pin_write_logic^0,c
  4995   002160  0E01               	movlw	1
  4996   002162  6E45               	movwf	(??_gpio_pin_write_logic+1)^0,c
  4997   002164  2A44               	incf	??_gpio_pin_write_logic^0,f,c
  4998   002166  EFB7  F010         	goto	u5954
  4999   00216A                     u5955:
  5000   00216A  90D8               	bcf	status,0,c
  5001   00216C  3645               	rlcf	(??_gpio_pin_write_logic+1)^0,f,c
  5002   00216E                     u5954:
  5003   00216E  2E44               	decfsz	??_gpio_pin_write_logic^0,f,c
  5004   002170  EFB5  F010         	goto	u5955
  5005   002174  5045               	movf	(??_gpio_pin_write_logic+1)^0,w,c
  5006   002176  0AFF               	xorlw	255
  5007   002178  6E46               	movwf	(??_gpio_pin_write_logic+2)^0,c
  5008   00217A  C041  FFD9         	movff	gpio_pin_write_logic@pin_config,fsr2l
  5009   00217E  C042  FFDA         	movff	gpio_pin_write_logic@pin_config+1,fsr2h
  5010   002182  50DF               	movf	223,w,c
  5011   002184  0B07               	andlw	7
  5012   002186  6E47               	movwf	(??_gpio_pin_write_logic+3)^0,c
  5013   002188  5047               	movf	(??_gpio_pin_write_logic+3)^0,w,c
  5014   00218A  0D02               	mullw	2
  5015   00218C  0E8A               	movlw	low _lat_register
  5016   00218E  24F3               	addwf	243,w,c
  5017   002190  6ED9               	movwf	fsr2l,c
  5018   002192  0E00               	movlw	high _lat_register
  5019   002194  20F4               	addwfc	prodh,w,c
  5020   002196  6EDA               	movwf	fsr2h,c
  5021   002198  CFDE F048          	movff	postinc2,??_gpio_pin_write_logic+4
  5022   00219C  CFDD F049          	movff	postdec2,??_gpio_pin_write_logic+5
  5023   0021A0  C048  FFD9         	movff	??_gpio_pin_write_logic+4,fsr2l
  5024   0021A4  C049  FFDA         	movff	??_gpio_pin_write_logic+5,fsr2h
  5025   0021A8  5046               	movf	(??_gpio_pin_write_logic+2)^0,w,c
  5026   0021AA  16DF               	andwf	indf2,f,c
  5027                           
  5028                           ;mcal_layer/GPIO/hal_gpio.c: 72:                   break;
  5029   0021AC  EF1B  F011         	goto	l7367
  5030   0021B0                     l7361:
  5031                           
  5032                           ;mcal_layer/GPIO/hal_gpio.c: 74:                   *lat_register[pin_config->port] |=(1 
      +                          <<pin_config->pin);
  5033   0021B0  C041  FFD9         	movff	gpio_pin_write_logic@pin_config,fsr2l
  5034   0021B4  C042  FFDA         	movff	gpio_pin_write_logic@pin_config+1,fsr2h
  5035   0021B8  30DF               	rrcf	223,w,c
  5036   0021BA  32E8               	rrcf	wreg,f,c
  5037   0021BC  32E8               	rrcf	wreg,f,c
  5038   0021BE  0B07               	andlw	7
  5039   0021C0  6E44               	movwf	??_gpio_pin_write_logic^0,c
  5040   0021C2  0E01               	movlw	1
  5041   0021C4  6E45               	movwf	(??_gpio_pin_write_logic+1)^0,c
  5042   0021C6  2A44               	incf	??_gpio_pin_write_logic^0,f,c
  5043   0021C8  EFE8  F010         	goto	u5964
  5044   0021CC                     u5965:
  5045   0021CC  90D8               	bcf	status,0,c
  5046   0021CE  3645               	rlcf	(??_gpio_pin_write_logic+1)^0,f,c
  5047   0021D0                     u5964:
  5048   0021D0  2E44               	decfsz	??_gpio_pin_write_logic^0,f,c
  5049   0021D2  EFE6  F010         	goto	u5965
  5050   0021D6  C041  FFD9         	movff	gpio_pin_write_logic@pin_config,fsr2l
  5051   0021DA  C042  FFDA         	movff	gpio_pin_write_logic@pin_config+1,fsr2h
  5052   0021DE  50DF               	movf	223,w,c
  5053   0021E0  0B07               	andlw	7
  5054   0021E2  6E46               	movwf	(??_gpio_pin_write_logic+2)^0,c
  5055   0021E4  5046               	movf	(??_gpio_pin_write_logic+2)^0,w,c
  5056   0021E6  0D02               	mullw	2
  5057   0021E8  0E8A               	movlw	low _lat_register
  5058   0021EA  24F3               	addwf	243,w,c
  5059   0021EC  6ED9               	movwf	fsr2l,c
  5060   0021EE  0E00               	movlw	high _lat_register
  5061   0021F0  20F4               	addwfc	prodh,w,c
  5062   0021F2  6EDA               	movwf	fsr2h,c
  5063   0021F4  CFDE F047          	movff	postinc2,??_gpio_pin_write_logic+3
  5064   0021F8  CFDD F048          	movff	postdec2,??_gpio_pin_write_logic+4
  5065   0021FC  C047  FFD9         	movff	??_gpio_pin_write_logic+3,fsr2l
  5066   002200  C048  FFDA         	movff	??_gpio_pin_write_logic+4,fsr2h
  5067   002204  5045               	movf	(??_gpio_pin_write_logic+1)^0,w,c
  5068   002206  12DF               	iorwf	indf2,f,c
  5069                           
  5070                           ;mcal_layer/GPIO/hal_gpio.c: 75:                   break;
  5071   002208  EF1B  F011         	goto	l7367
  5072   00220C                     l7365:
  5073   00220C  5043               	movf	gpio_pin_write_logic@logic^0,w,c
  5074   00220E  6E44               	movwf	??_gpio_pin_write_logic^0,c
  5075   002210  6A45               	clrf	(??_gpio_pin_write_logic+1)^0,c
  5076                           
  5077                           ; Switch on 2 bytes has been partitioned into a top level switch of size 1, and 1 sub-sw
      +                          itches
  5078                           ; Switch size 1, requested type "simple"
  5079                           ; Number of cases is 1, Range of values is 0 to 0
  5080                           ; switch strategies available:
  5081                           ; Name         Instructions Cycles
  5082                           ; simple_byte            4     3 (average)
  5083                           ;	Chosen strategy is simple_byte
  5084   002212  5045               	movf	(??_gpio_pin_write_logic+1)^0,w,c
  5085   002214  0A00               	xorlw	0	; case 0
  5086   002216  B4D8               	btfsc	status,2,c
  5087   002218  EF10  F011         	goto	l8791
  5088   00221C  EFA3  F010         	goto	l7357
  5089   002220                     l8791:
  5090                           
  5091                           ; Switch size 1, requested type "simple"
  5092                           ; Number of cases is 2, Range of values is 0 to 1
  5093                           ; switch strategies available:
  5094                           ; Name         Instructions Cycles
  5095                           ; simple_byte            7     4 (average)
  5096                           ;	Chosen strategy is simple_byte
  5097   002220  5044               	movf	??_gpio_pin_write_logic^0,w,c
  5098   002222  0A00               	xorlw	0	; case 0
  5099   002224  B4D8               	btfsc	status,2,c
  5100   002226  EFA7  F010         	goto	l7359
  5101   00222A  0A01               	xorlw	1	; case 1
  5102   00222C  B4D8               	btfsc	status,2,c
  5103   00222E  EFD8  F010         	goto	l7361
  5104   002232  EFA3  F010         	goto	l7357
  5105   002236                     l7367:
  5106                           
  5107                           ;mcal_layer/GPIO/hal_gpio.c: 77:     return ret;
  5108   002236  504A               	movf	gpio_pin_write_logic@ret^0,w,c
  5109   002238  0012               	return		;funcret
  5110   00223A                     __end_of_gpio_pin_write_logic:
  5111                           	callstack 0
  5112                           
  5113 ;; *************** function _gpio_pin_direction_intialize *****************
  5114 ;; Defined at:
  5115 ;;		line 18 in file "mcal_layer/GPIO/hal_gpio.c"
  5116 ;; Parameters:    Size  Location     Type
  5117 ;;  pin_config      2    1[COMRAM] PTR const struct .
  5118 ;;		 -> seg_pin_1(1), seg_pin_2(1), seg_pin_3(1), seg_pin_4(1), 
  5119 ;;		 -> seg_pin_5(1), seg_pin_6(1), segment_1.segment_pins(4), segment_1(5), 
  5120 ;;		 -> keypad1.keypad_columns_pins(4), keypad1.keypad_row_pins(4), keypad1(8), lcd_1.lcd_data(4), 
  5121 ;;		 -> lcd_1(6), relay_initialize@object(1), led_initialize@object(1), dc_motor_initialize@motor_con2(1), 
  5122 ;;		 -> dc_motor_initialize@motor_con1(1), 
  5123 ;; Auto vars:     Size  Location     Type
  5124 ;;  ret             1    9[COMRAM] unsigned char 
  5125 ;; Return value:  Size  Location     Type
  5126 ;;                  1    wreg      unsigned char 
  5127 ;; Registers used:
  5128 ;;		wreg, fsr2l, fsr2h, status,2, status,0, prodl, prodh
  5129 ;; Tracked objects:
  5130 ;;		On entry : 0/0
  5131 ;;		On exit  : 0/0
  5132 ;;		Unchanged: 0/0
  5133 ;; Data sizes:     COMRAM   BANK0   BANK1   BANK2   BANK3   BANK4   BANK5   BANK6   BANK7   BANK8   BANK9  BANK10  BANK1
      +1  BANK12  BANK13  BANK14  BANK15
  5134 ;;      Params:         2       0       0       0       0       0       0       0       0       0       0       0       
      +0       0       0       0       0
  5135 ;;      Locals:         1       0       0       0       0       0       0       0       0       0       0       0       
      +0       0       0       0       0
  5136 ;;      Temps:          6       0       0       0       0       0       0       0       0       0       0       0       
      +0       0       0       0       0
  5137 ;;      Totals:         9       0       0       0       0       0       0       0       0       0       0       0       
      +0       0       0       0       0
  5138 ;;Total ram usage:        9 bytes
  5139 ;; Hardware stack levels used: 1
  5140 ;; Hardware stack levels required when called: 2
  5141 ;; This function calls:
  5142 ;;		Nothing
  5143 ;; This function is called by:
  5144 ;;		_keypad_initialize
  5145 ;;		_gpio_pin_intialize
  5146 ;;		_button_initialize
  5147 ;;		_Interrupt_RBx_Init
  5148 ;;		_Interrupt_INTx_Pin_Init
  5149 ;; This function uses a non-reentrant model
  5150 ;;
  5151                           
  5152                           	psect	text22
  5153   001FCA                     __ptext22:
  5154                           	callstack 0
  5155   001FCA                     _gpio_pin_direction_intialize:
  5156                           	callstack 25
  5157   001FCA                     
  5158                           ;mcal_layer/GPIO/hal_gpio.c: 19:           Std_returntype ret = ( Std_returntype)0x01 ;
  5159   001FCA  0E01               	movlw	1
  5160   001FCC  6E49               	movwf	gpio_pin_direction_intialize@ret^0,c
  5161   001FCE                     
  5162                           ;mcal_layer/GPIO/hal_gpio.c: 20:           if(((void*)0)==pin_config|| pin_config->pin> 
      +                          8 -1 ){
  5163   001FCE  5041               	movf	gpio_pin_direction_intialize@pin_config^0,w,c
  5164   001FD0  1042               	iorwf	(gpio_pin_direction_intialize@pin_config+1)^0,w,c
  5165   001FD2  B4D8               	btfsc	status,2,c
  5166   001FD4  EFEE  F00F         	goto	u5971
  5167   001FD8  EFF0  F00F         	goto	u5970
  5168   001FDC                     u5971:
  5169   001FDC  EF01  F010         	goto	l7381
  5170   001FE0                     u5970:
  5171   001FE0  C041  FFD9         	movff	gpio_pin_direction_intialize@pin_config,fsr2l
  5172   001FE4  C042  FFDA         	movff	gpio_pin_direction_intialize@pin_config+1,fsr2h
  5173   001FE8  30DF               	rrcf	223,w,c
  5174   001FEA  32E8               	rrcf	wreg,f,c
  5175   001FEC  32E8               	rrcf	wreg,f,c
  5176   001FEE  0B07               	andlw	7
  5177   001FF0  6E43               	movwf	??_gpio_pin_direction_intialize^0,c
  5178   001FF2  0E07               	movlw	7
  5179   001FF4  6443               	cpfsgt	??_gpio_pin_direction_intialize^0,c
  5180   001FF6  EFFF  F00F         	goto	u5981
  5181   001FFA  EF01  F010         	goto	u5980
  5182   001FFE                     u5981:
  5183   001FFE  EF64  F010         	goto	l7389
  5184   002002                     u5980:
  5185   002002                     l7381:
  5186                           
  5187                           ;mcal_layer/GPIO/hal_gpio.c: 21:              ret=( Std_returntype)0x00 ; }
  5188   002002  0E00               	movlw	0
  5189   002004  6E49               	movwf	gpio_pin_direction_intialize@ret^0,c
  5190   002006  EF85  F010         	goto	l7391
  5191   00200A                     l7383:
  5192                           
  5193                           ;mcal_layer/GPIO/hal_gpio.c: 26:                   *tris_register[pin_config->port] &=~(
      +                          1 <<pin_config->pin);
  5194   00200A  C041  FFD9         	movff	gpio_pin_direction_intialize@pin_config,fsr2l
  5195   00200E  C042  FFDA         	movff	gpio_pin_direction_intialize@pin_config+1,fsr2h
  5196   002012  30DF               	rrcf	223,w,c
  5197   002014  32E8               	rrcf	wreg,f,c
  5198   002016  32E8               	rrcf	wreg,f,c
  5199   002018  0B07               	andlw	7
  5200   00201A  6E43               	movwf	??_gpio_pin_direction_intialize^0,c
  5201   00201C  0E01               	movlw	1
  5202   00201E  6E44               	movwf	(??_gpio_pin_direction_intialize+1)^0,c
  5203   002020  2A43               	incf	??_gpio_pin_direction_intialize^0,f,c
  5204   002022  EF15  F010         	goto	u5994
  5205   002026                     u5995:
  5206   002026  90D8               	bcf	status,0,c
  5207   002028  3644               	rlcf	(??_gpio_pin_direction_intialize+1)^0,f,c
  5208   00202A                     u5994:
  5209   00202A  2E43               	decfsz	??_gpio_pin_direction_intialize^0,f,c
  5210   00202C  EF13  F010         	goto	u5995
  5211   002030  5044               	movf	(??_gpio_pin_direction_intialize+1)^0,w,c
  5212   002032  0AFF               	xorlw	255
  5213   002034  6E45               	movwf	(??_gpio_pin_direction_intialize+2)^0,c
  5214   002036  C041  FFD9         	movff	gpio_pin_direction_intialize@pin_config,fsr2l
  5215   00203A  C042  FFDA         	movff	gpio_pin_direction_intialize@pin_config+1,fsr2h
  5216   00203E  50DF               	movf	223,w,c
  5217   002040  0B07               	andlw	7
  5218   002042  6E46               	movwf	(??_gpio_pin_direction_intialize+3)^0,c
  5219   002044  5046               	movf	(??_gpio_pin_direction_intialize+3)^0,w,c
  5220   002046  0D02               	mullw	2
  5221   002048  0E94               	movlw	low _tris_register
  5222   00204A  24F3               	addwf	243,w,c
  5223   00204C  6ED9               	movwf	fsr2l,c
  5224   00204E  0E00               	movlw	high _tris_register
  5225   002050  20F4               	addwfc	prodh,w,c
  5226   002052  6EDA               	movwf	fsr2h,c
  5227   002054  CFDE F047          	movff	postinc2,??_gpio_pin_direction_intialize+4
  5228   002058  CFDD F048          	movff	postdec2,??_gpio_pin_direction_intialize+5
  5229   00205C  C047  FFD9         	movff	??_gpio_pin_direction_intialize+4,fsr2l
  5230   002060  C048  FFDA         	movff	??_gpio_pin_direction_intialize+5,fsr2h
  5231   002064  5045               	movf	(??_gpio_pin_direction_intialize+2)^0,w,c
  5232   002066  16DF               	andwf	indf2,f,c
  5233                           
  5234                           ;mcal_layer/GPIO/hal_gpio.c: 27:                   break;
  5235   002068  EF85  F010         	goto	l7391
  5236   00206C                     l7385:
  5237                           
  5238                           ;mcal_layer/GPIO/hal_gpio.c: 29:                   *tris_register[pin_config->port] |=(1
      +                           <<pin_config->pin);
  5239   00206C  C041  FFD9         	movff	gpio_pin_direction_intialize@pin_config,fsr2l
  5240   002070  C042  FFDA         	movff	gpio_pin_direction_intialize@pin_config+1,fsr2h
  5241   002074  30DF               	rrcf	223,w,c
  5242   002076  32E8               	rrcf	wreg,f,c
  5243   002078  32E8               	rrcf	wreg,f,c
  5244   00207A  0B07               	andlw	7
  5245   00207C  6E43               	movwf	??_gpio_pin_direction_intialize^0,c
  5246   00207E  0E01               	movlw	1
  5247   002080  6E44               	movwf	(??_gpio_pin_direction_intialize+1)^0,c
  5248   002082  2A43               	incf	??_gpio_pin_direction_intialize^0,f,c
  5249   002084  EF46  F010         	goto	u6004
  5250   002088                     u6005:
  5251   002088  90D8               	bcf	status,0,c
  5252   00208A  3644               	rlcf	(??_gpio_pin_direction_intialize+1)^0,f,c
  5253   00208C                     u6004:
  5254   00208C  2E43               	decfsz	??_gpio_pin_direction_intialize^0,f,c
  5255   00208E  EF44  F010         	goto	u6005
  5256   002092  C041  FFD9         	movff	gpio_pin_direction_intialize@pin_config,fsr2l
  5257   002096  C042  FFDA         	movff	gpio_pin_direction_intialize@pin_config+1,fsr2h
  5258   00209A  50DF               	movf	223,w,c
  5259   00209C  0B07               	andlw	7
  5260   00209E  6E45               	movwf	(??_gpio_pin_direction_intialize+2)^0,c
  5261   0020A0  5045               	movf	(??_gpio_pin_direction_intialize+2)^0,w,c
  5262   0020A2  0D02               	mullw	2
  5263   0020A4  0E94               	movlw	low _tris_register
  5264   0020A6  24F3               	addwf	243,w,c
  5265   0020A8  6ED9               	movwf	fsr2l,c
  5266   0020AA  0E00               	movlw	high _tris_register
  5267   0020AC  20F4               	addwfc	prodh,w,c
  5268   0020AE  6EDA               	movwf	fsr2h,c
  5269   0020B0  CFDE F046          	movff	postinc2,??_gpio_pin_direction_intialize+3
  5270   0020B4  CFDD F047          	movff	postdec2,??_gpio_pin_direction_intialize+4
  5271   0020B8  C046  FFD9         	movff	??_gpio_pin_direction_intialize+3,fsr2l
  5272   0020BC  C047  FFDA         	movff	??_gpio_pin_direction_intialize+4,fsr2h
  5273   0020C0  5044               	movf	(??_gpio_pin_direction_intialize+1)^0,w,c
  5274   0020C2  12DF               	iorwf	indf2,f,c
  5275                           
  5276                           ;mcal_layer/GPIO/hal_gpio.c: 30:                   break;
  5277   0020C4  EF85  F010         	goto	l7391
  5278   0020C8                     l7389:
  5279   0020C8  C041  FFD9         	movff	gpio_pin_direction_intialize@pin_config,fsr2l
  5280   0020CC  C042  FFDA         	movff	gpio_pin_direction_intialize@pin_config+1,fsr2h
  5281   0020D0  BCDF               	btfsc	indf2,6,c
  5282   0020D2  EF6D  F010         	goto	u6011
  5283   0020D6  EF70  F010         	goto	u6010
  5284   0020DA                     u6011:
  5285   0020DA  0E01               	movlw	1
  5286   0020DC  EF71  F010         	goto	u6020
  5287   0020E0                     u6010:
  5288   0020E0  0E00               	movlw	0
  5289   0020E2                     u6020:
  5290   0020E2  6E43               	movwf	??_gpio_pin_direction_intialize^0,c
  5291   0020E4  6A44               	clrf	(??_gpio_pin_direction_intialize+1)^0,c
  5292                           
  5293                           ; Switch on 2 bytes has been partitioned into a top level switch of size 1, and 1 sub-sw
      +                          itches
  5294                           ; Switch size 1, requested type "simple"
  5295                           ; Number of cases is 1, Range of values is 0 to 0
  5296                           ; switch strategies available:
  5297                           ; Name         Instructions Cycles
  5298                           ; simple_byte            4     3 (average)
  5299                           ;	Chosen strategy is simple_byte
  5300   0020E6  5044               	movf	(??_gpio_pin_direction_intialize+1)^0,w,c
  5301   0020E8  0A00               	xorlw	0	; case 0
  5302   0020EA  B4D8               	btfsc	status,2,c
  5303   0020EC  EF7A  F010         	goto	l8793
  5304   0020F0  EF01  F010         	goto	l7381
  5305   0020F4                     l8793:
  5306                           
  5307                           ; Switch size 1, requested type "simple"
  5308                           ; Number of cases is 2, Range of values is 0 to 1
  5309                           ; switch strategies available:
  5310                           ; Name         Instructions Cycles
  5311                           ; simple_byte            7     4 (average)
  5312                           ;	Chosen strategy is simple_byte
  5313   0020F4  5043               	movf	??_gpio_pin_direction_intialize^0,w,c
  5314   0020F6  0A00               	xorlw	0	; case 0
  5315   0020F8  B4D8               	btfsc	status,2,c
  5316   0020FA  EF05  F010         	goto	l7383
  5317   0020FE  0A01               	xorlw	1	; case 1
  5318   002100  B4D8               	btfsc	status,2,c
  5319   002102  EF36  F010         	goto	l7385
  5320   002106  EF01  F010         	goto	l7381
  5321   00210A                     l7391:
  5322                           
  5323                           ;mcal_layer/GPIO/hal_gpio.c: 33:           return ret ;
  5324   00210A  5049               	movf	gpio_pin_direction_intialize@ret^0,w,c
  5325   00210C  0012               	return		;funcret
  5326   00210E                     __end_of_gpio_pin_direction_intialize:
  5327                           	callstack 0
  5328                           
  5329 ;; *************** function _Timer0_Init *****************
  5330 ;; Defined at:
  5331 ;;		line 13 in file "mcal_layer/Timer0/hal_timr0.c"
  5332 ;; Parameters:    Size  Location     Type
  5333 ;;  _timer          2    4[COMRAM] PTR const struct .
  5334 ;;		 -> timer0_counter_obj(7), 
  5335 ;; Auto vars:     Size  Location     Type
  5336 ;;  ret             1    8[COMRAM] unsigned char 
  5337 ;; Return value:  Size  Location     Type
  5338 ;;                  1    wreg      unsigned char 
  5339 ;; Registers used:
  5340 ;;		wreg, fsr2l, fsr2h, status,2, status,0, cstack
  5341 ;; Tracked objects:
  5342 ;;		On entry : 0/0
  5343 ;;		On exit  : 0/0
  5344 ;;		Unchanged: 0/0
  5345 ;; Data sizes:     COMRAM   BANK0   BANK1   BANK2   BANK3   BANK4   BANK5   BANK6   BANK7   BANK8   BANK9  BANK10  BANK1
      +1  BANK12  BANK13  BANK14  BANK15
  5346 ;;      Params:         2       0       0       0       0       0       0       0       0       0       0       0       
      +0       0       0       0       0
  5347 ;;      Locals:         1       0       0       0       0       0       0       0       0       0       0       0       
      +0       0       0       0       0
  5348 ;;      Temps:          2       0       0       0       0       0       0       0       0       0       0       0       
      +0       0       0       0       0
  5349 ;;      Totals:         5       0       0       0       0       0       0       0       0       0       0       0       
      +0       0       0       0       0
  5350 ;;Total ram usage:        5 bytes
  5351 ;; Hardware stack levels used: 1
  5352 ;; Hardware stack levels required when called: 3
  5353 ;; This function calls:
  5354 ;;		_Timer0_Mode_Select
  5355 ;;		_Timer0_Prescaler_Config
  5356 ;;		_Timer0_Register_Size_Config
  5357 ;; This function is called by:
  5358 ;;		_application_intialize
  5359 ;; This function uses a non-reentrant model
  5360 ;;
  5361                           
  5362                           	psect	text23
  5363   0025DC                     __ptext23:
  5364                           	callstack 0
  5365   0025DC                     _Timer0_Init:
  5366                           	callstack 26
  5367   0025DC                     
  5368                           ;mcal_layer/Timer0/hal_timr0.c: 15:     if(((void*)0) == _timer){
  5369   0025DC  5044               	movf	Timer0_Init@_timer^0,w,c
  5370   0025DE  1045               	iorwf	(Timer0_Init@_timer+1)^0,w,c
  5371   0025E0  A4D8               	btfss	status,2,c
  5372   0025E2  EFF5  F012         	goto	u6301
  5373   0025E6  EFF7  F012         	goto	u6300
  5374   0025EA                     u6301:
  5375   0025EA  EFFB  F012         	goto	l1281
  5376   0025EE                     u6300:
  5377   0025EE                     
  5378                           ;mcal_layer/Timer0/hal_timr0.c: 16:         ret = ( Std_returntype)0x00;
  5379   0025EE  0E00               	movlw	0
  5380   0025F0  6E48               	movwf	Timer0_Init@ret^0,c
  5381                           
  5382                           ;mcal_layer/Timer0/hal_timr0.c: 17:     }
  5383   0025F2  EF3E  F013         	goto	l7709
  5384   0025F6                     l1281:
  5385                           
  5386                           ;mcal_layer/Timer0/hal_timr0.c: 19:         (T0CONbits.TMR0ON = 0);
  5387   0025F6  9ED5               	bcf	213,7,c	;volatile
  5388   0025F8                     
  5389                           ;mcal_layer/Timer0/hal_timr0.c: 20:         Timer0_Prescaler_Config(_timer);
  5390   0025F8  C044  F041         	movff	Timer0_Init@_timer,Timer0_Prescaler_Config@_timer
  5391   0025FC  C045  F042         	movff	Timer0_Init@_timer+1,Timer0_Prescaler_Config@_timer+1
  5392   002600  ECF2  F016         	call	_Timer0_Prescaler_Config	;wreg free
  5393                           
  5394                           ;mcal_layer/Timer0/hal_timr0.c: 21:         Timer0_Mode_Select(_timer);
  5395   002604  C044  F041         	movff	Timer0_Init@_timer,Timer0_Mode_Select@_timer
  5396   002608  C045  F042         	movff	Timer0_Init@_timer+1,Timer0_Mode_Select@_timer+1
  5397   00260C  EC13  F014         	call	_Timer0_Mode_Select	;wreg free
  5398                           
  5399                           ;mcal_layer/Timer0/hal_timr0.c: 22:         Timer0_Register_Size_Config(_timer);
  5400   002610  C044  F041         	movff	Timer0_Init@_timer,Timer0_Register_Size_Config@_timer
  5401   002614  C045  F042         	movff	Timer0_Init@_timer+1,Timer0_Register_Size_Config@_timer+1
  5402   002618  EC6E  F017         	call	_Timer0_Register_Size_Config	;wreg free
  5403   00261C                     
  5404                           ;mcal_layer/Timer0/hal_timr0.c: 23:         TMR0H = (_timer->timer0_preload_value) >> 8;
  5405   00261C  EE20 F004          	lfsr	2,4
  5406   002620  5044               	movf	Timer0_Init@_timer^0,w,c
  5407   002622  26D9               	addwf	fsr2l,f,c
  5408   002624  5045               	movf	(Timer0_Init@_timer+1)^0,w,c
  5409   002626  22DA               	addwfc	fsr2h,f,c
  5410   002628  CFDE F046          	movff	postinc2,??_Timer0_Init
  5411   00262C  CFDD F047          	movff	postdec2,??_Timer0_Init+1
  5412   002630  C047  F046         	movff	??_Timer0_Init+1,??_Timer0_Init
  5413   002634  6A47               	clrf	(??_Timer0_Init+1)^0,c
  5414   002636  5046               	movf	??_Timer0_Init^0,w,c
  5415   002638  6ED7               	movwf	215,c	;volatile
  5416   00263A                     
  5417                           ;mcal_layer/Timer0/hal_timr0.c: 24:         TMR0L = (uint8)(_timer->timer0_preload_value
      +                          );
  5418   00263A  EE20 F004          	lfsr	2,4
  5419   00263E  5044               	movf	Timer0_Init@_timer^0,w,c
  5420   002640  26D9               	addwf	fsr2l,f,c
  5421   002642  5045               	movf	(Timer0_Init@_timer+1)^0,w,c
  5422   002644  22DA               	addwfc	fsr2h,f,c
  5423   002646  50DF               	movf	indf2,w,c
  5424   002648  6ED6               	movwf	214,c	;volatile
  5425   00264A                     
  5426                           ;mcal_layer/Timer0/hal_timr0.c: 25:         timer0_preload = _timer->timer0_preload_valu
      +                          e;
  5427   00264A  EE20 F004          	lfsr	2,4
  5428   00264E  5044               	movf	Timer0_Init@_timer^0,w,c
  5429   002650  26D9               	addwf	fsr2l,f,c
  5430   002652  5045               	movf	(Timer0_Init@_timer+1)^0,w,c
  5431   002654  22DA               	addwfc	fsr2h,f,c
  5432   002656  CFDE F007          	movff	postinc2,_timer0_preload
  5433   00265A  CFDD F008          	movff	postdec2,_timer0_preload+1
  5434   00265E                     
  5435                           ;mcal_layer/Timer0/hal_timr0.c: 28:         (INTCONbits.TMR0IE = 1);
  5436   00265E  8AF2               	bsf	242,5,c	;volatile
  5437   002660                     
  5438                           ;mcal_layer/Timer0/hal_timr0.c: 29:         (INTCONbits.TMR0IF = 0);
  5439   002660  94F2               	bcf	242,2,c	;volatile
  5440   002662                     
  5441                           ;mcal_layer/Timer0/hal_timr0.c: 30:         TMR0_InterruptHandler = _timer->TMR0_Interru
      +                          ptHandler;
  5442   002662  C044  FFD9         	movff	Timer0_Init@_timer,fsr2l
  5443   002666  C045  FFDA         	movff	Timer0_Init@_timer+1,fsr2h
  5444   00266A  CFDE F0D0          	movff	postinc2,_TMR0_InterruptHandler
  5445   00266E  CFDD F0D1          	movff	postdec2,_TMR0_InterruptHandler+1
  5446   002672                     
  5447                           ;mcal_layer/Timer0/hal_timr0.c: 47:         (INTCONbits.GIE = 1);
  5448   002672  8EF2               	bsf	242,7,c	;volatile
  5449   002674                     
  5450                           ;mcal_layer/Timer0/hal_timr0.c: 48:         (INTCONbits.PEIE = 1);
  5451   002674  8CF2               	bsf	242,6,c	;volatile
  5452   002676                     
  5453                           ;mcal_layer/Timer0/hal_timr0.c: 52:         (T0CONbits.TMR0ON = 1);
  5454   002676  8ED5               	bsf	213,7,c	;volatile
  5455   002678                     
  5456                           ;mcal_layer/Timer0/hal_timr0.c: 53:         ret = ( Std_returntype)0x01;
  5457   002678  0E01               	movlw	1
  5458   00267A  6E48               	movwf	Timer0_Init@ret^0,c
  5459   00267C                     l7709:
  5460                           
  5461                           ;mcal_layer/Timer0/hal_timr0.c: 55:     return ret;
  5462   00267C  5048               	movf	Timer0_Init@ret^0,w,c
  5463   00267E  0012               	return		;funcret
  5464   002680                     __end_of_Timer0_Init:
  5465                           	callstack 0
  5466                           
  5467 ;; *************** function _Timer0_Register_Size_Config *****************
  5468 ;; Defined at:
  5469 ;;		line 138 in file "mcal_layer/Timer0/hal_timr0.c"
  5470 ;; Parameters:    Size  Location     Type
  5471 ;;  _timer          2    1[COMRAM] PTR const struct .
  5472 ;;		 -> timer0_counter_obj(7), 
  5473 ;; Auto vars:     Size  Location     Type
  5474 ;;		None
  5475 ;; Return value:  Size  Location     Type
  5476 ;;                  1    wreg      void 
  5477 ;; Registers used:
  5478 ;;		wreg, fsr2l, fsr2h, status,2, status,0
  5479 ;; Tracked objects:
  5480 ;;		On entry : 0/0
  5481 ;;		On exit  : 0/0
  5482 ;;		Unchanged: 0/0
  5483 ;; Data sizes:     COMRAM   BANK0   BANK1   BANK2   BANK3   BANK4   BANK5   BANK6   BANK7   BANK8   BANK9  BANK10  BANK1
      +1  BANK12  BANK13  BANK14  BANK15
  5484 ;;      Params:         2       0       0       0       0       0       0       0       0       0       0       0       
      +0       0       0       0       0
  5485 ;;      Locals:         0       0       0       0       0       0       0       0       0       0       0       0       
      +0       0       0       0       0
  5486 ;;      Temps:          0       0       0       0       0       0       0       0       0       0       0       0       
      +0       0       0       0       0
  5487 ;;      Totals:         2       0       0       0       0       0       0       0       0       0       0       0       
      +0       0       0       0       0
  5488 ;;Total ram usage:        2 bytes
  5489 ;; Hardware stack levels used: 1
  5490 ;; Hardware stack levels required when called: 2
  5491 ;; This function calls:
  5492 ;;		Nothing
  5493 ;; This function is called by:
  5494 ;;		_Timer0_Init
  5495 ;; This function uses a non-reentrant model
  5496 ;;
  5497                           
  5498                           	psect	text24
  5499   002EDC                     __ptext24:
  5500                           	callstack 0
  5501   002EDC                     _Timer0_Register_Size_Config:
  5502                           	callstack 26
  5503   002EDC                     
  5504                           ;mcal_layer/Timer0/hal_timr0.c: 139:     if(1 == _timer->timer0_register_size){
  5505   002EDC  EE20 F006          	lfsr	2,6
  5506   002EE0  5041               	movf	Timer0_Register_Size_Config@_timer^0,w,c
  5507   002EE2  26D9               	addwf	fsr2l,f,c
  5508   002EE4  5042               	movf	(Timer0_Register_Size_Config@_timer+1)^0,w,c
  5509   002EE6  22DA               	addwfc	fsr2h,f,c
  5510   002EE8  A6DF               	btfss	indf2,3,c
  5511   002EEA  EF79  F017         	goto	u6121
  5512   002EEE  EF7B  F017         	goto	u6120
  5513   002EF2                     u6121:
  5514   002EF2  EF7E  F017         	goto	l7479
  5515   002EF6                     u6120:
  5516   002EF6                     
  5517                           ;mcal_layer/Timer0/hal_timr0.c: 140:         (T0CONbits.T08BIT = 1);
  5518   002EF6  8CD5               	bsf	213,6,c	;volatile
  5519                           
  5520                           ;mcal_layer/Timer0/hal_timr0.c: 141:     }
  5521   002EF8  EF8C  F017         	goto	l1327
  5522   002EFC                     l7479:
  5523   002EFC  EE20 F006          	lfsr	2,6
  5524   002F00  5041               	movf	Timer0_Register_Size_Config@_timer^0,w,c
  5525   002F02  26D9               	addwf	fsr2l,f,c
  5526   002F04  5042               	movf	(Timer0_Register_Size_Config@_timer+1)^0,w,c
  5527   002F06  22DA               	addwfc	fsr2h,f,c
  5528   002F08  B6DF               	btfsc	indf2,3,c
  5529   002F0A  EF89  F017         	goto	u6131
  5530   002F0E  EF8B  F017         	goto	u6130
  5531   002F12                     u6131:
  5532   002F12  EF8C  F017         	goto	l1327
  5533   002F16                     u6130:
  5534   002F16                     
  5535                           ;mcal_layer/Timer0/hal_timr0.c: 143:         (T0CONbits.T08BIT = 0);
  5536   002F16  9CD5               	bcf	213,6,c	;volatile
  5537   002F18                     l1327:
  5538   002F18  0012               	return		;funcret
  5539   002F1A                     __end_of_Timer0_Register_Size_Config:
  5540                           	callstack 0
  5541                           
  5542 ;; *************** function _Timer0_Prescaler_Config *****************
  5543 ;; Defined at:
  5544 ;;		line 110 in file "mcal_layer/Timer0/hal_timr0.c"
  5545 ;; Parameters:    Size  Location     Type
  5546 ;;  _timer          2    1[COMRAM] PTR const struct .
  5547 ;;		 -> timer0_counter_obj(7), 
  5548 ;; Auto vars:     Size  Location     Type
  5549 ;;		None
  5550 ;; Return value:  Size  Location     Type
  5551 ;;                  1    wreg      void 
  5552 ;; Registers used:
  5553 ;;		wreg, fsr2l, fsr2h, status,2, status,0
  5554 ;; Tracked objects:
  5555 ;;		On entry : 0/0
  5556 ;;		On exit  : 0/0
  5557 ;;		Unchanged: 0/0
  5558 ;; Data sizes:     COMRAM   BANK0   BANK1   BANK2   BANK3   BANK4   BANK5   BANK6   BANK7   BANK8   BANK9  BANK10  BANK1
      +1  BANK12  BANK13  BANK14  BANK15
  5559 ;;      Params:         2       0       0       0       0       0       0       0       0       0       0       0       
      +0       0       0       0       0
  5560 ;;      Locals:         0       0       0       0       0       0       0       0       0       0       0       0       
      +0       0       0       0       0
  5561 ;;      Temps:          1       0       0       0       0       0       0       0       0       0       0       0       
      +0       0       0       0       0
  5562 ;;      Totals:         3       0       0       0       0       0       0       0       0       0       0       0       
      +0       0       0       0       0
  5563 ;;Total ram usage:        3 bytes
  5564 ;; Hardware stack levels used: 1
  5565 ;; Hardware stack levels required when called: 2
  5566 ;; This function calls:
  5567 ;;		Nothing
  5568 ;; This function is called by:
  5569 ;;		_Timer0_Init
  5570 ;; This function uses a non-reentrant model
  5571 ;;
  5572                           
  5573                           	psect	text25
  5574   002DE4                     __ptext25:
  5575                           	callstack 0
  5576   002DE4                     _Timer0_Prescaler_Config:
  5577                           	callstack 26
  5578   002DE4                     
  5579                           ;mcal_layer/Timer0/hal_timr0.c: 111:     if(1 == _timer->prescaler_enable){
  5580   002DE4  EE20 F006          	lfsr	2,6
  5581   002DE8  5041               	movf	Timer0_Prescaler_Config@_timer^0,w,c
  5582   002DEA  26D9               	addwf	fsr2l,f,c
  5583   002DEC  5042               	movf	(Timer0_Prescaler_Config@_timer+1)^0,w,c
  5584   002DEE  22DA               	addwfc	fsr2h,f,c
  5585   002DF0  A0DF               	btfss	indf2,0,c
  5586   002DF2  EFFD  F016         	goto	u6061
  5587   002DF6  EFFF  F016         	goto	u6060
  5588   002DFA                     u6061:
  5589   002DFA  EF0F  F017         	goto	l7455
  5590   002DFE                     u6060:
  5591   002DFE                     
  5592                           ;mcal_layer/Timer0/hal_timr0.c: 112:         (T0CONbits.PSA = 0);
  5593   002DFE  96D5               	bcf	213,3,c	;volatile
  5594   002E00                     
  5595                           ;mcal_layer/Timer0/hal_timr0.c: 113:         T0CONbits.T0PS = _timer->prescaler_value;
  5596   002E00  EE20 F003          	lfsr	2,3
  5597   002E04  5041               	movf	Timer0_Prescaler_Config@_timer^0,w,c
  5598   002E06  26D9               	addwf	fsr2l,f,c
  5599   002E08  5042               	movf	(Timer0_Prescaler_Config@_timer+1)^0,w,c
  5600   002E0A  22DA               	addwfc	fsr2h,f,c
  5601   002E0C  50DF               	movf	indf2,w,c
  5602   002E0E  6E43               	movwf	??_Timer0_Prescaler_Config^0,c
  5603   002E10  50D5               	movf	213,w,c	;volatile
  5604   002E12  1843               	xorwf	??_Timer0_Prescaler_Config^0,w,c
  5605   002E14  0BF8               	andlw	-8
  5606   002E16  1843               	xorwf	??_Timer0_Prescaler_Config^0,w,c
  5607   002E18  6ED5               	movwf	213,c	;volatile
  5608                           
  5609                           ;mcal_layer/Timer0/hal_timr0.c: 114:     }
  5610   002E1A  EF1D  F017         	goto	l1309
  5611   002E1E                     l7455:
  5612   002E1E  EE20 F006          	lfsr	2,6
  5613   002E22  5041               	movf	Timer0_Prescaler_Config@_timer^0,w,c
  5614   002E24  26D9               	addwf	fsr2l,f,c
  5615   002E26  5042               	movf	(Timer0_Prescaler_Config@_timer+1)^0,w,c
  5616   002E28  22DA               	addwfc	fsr2h,f,c
  5617   002E2A  B0DF               	btfsc	indf2,0,c
  5618   002E2C  EF1A  F017         	goto	u6071
  5619   002E30  EF1C  F017         	goto	u6070
  5620   002E34                     u6071:
  5621   002E34  EF1D  F017         	goto	l1309
  5622   002E38                     u6070:
  5623   002E38                     
  5624                           ;mcal_layer/Timer0/hal_timr0.c: 116:         (T0CONbits.PSA = 1);
  5625   002E38  86D5               	bsf	213,3,c	;volatile
  5626   002E3A                     l1309:
  5627   002E3A  0012               	return		;funcret
  5628   002E3C                     __end_of_Timer0_Prescaler_Config:
  5629                           	callstack 0
  5630                           
  5631 ;; *************** function _Timer0_Mode_Select *****************
  5632 ;; Defined at:
  5633 ;;		line 121 in file "mcal_layer/Timer0/hal_timr0.c"
  5634 ;; Parameters:    Size  Location     Type
  5635 ;;  _timer          2    1[COMRAM] PTR const struct .
  5636 ;;		 -> timer0_counter_obj(7), 
  5637 ;; Auto vars:     Size  Location     Type
  5638 ;;		None
  5639 ;; Return value:  Size  Location     Type
  5640 ;;                  1    wreg      void 
  5641 ;; Registers used:
  5642 ;;		wreg, fsr2l, fsr2h, status,2, status,0
  5643 ;; Tracked objects:
  5644 ;;		On entry : 0/0
  5645 ;;		On exit  : 0/0
  5646 ;;		Unchanged: 0/0
  5647 ;; Data sizes:     COMRAM   BANK0   BANK1   BANK2   BANK3   BANK4   BANK5   BANK6   BANK7   BANK8   BANK9  BANK10  BANK1
      +1  BANK12  BANK13  BANK14  BANK15
  5648 ;;      Params:         2       0       0       0       0       0       0       0       0       0       0       0       
      +0       0       0       0       0
  5649 ;;      Locals:         0       0       0       0       0       0       0       0       0       0       0       0       
      +0       0       0       0       0
  5650 ;;      Temps:          0       0       0       0       0       0       0       0       0       0       0       0       
      +0       0       0       0       0
  5651 ;;      Totals:         2       0       0       0       0       0       0       0       0       0       0       0       
      +0       0       0       0       0
  5652 ;;Total ram usage:        2 bytes
  5653 ;; Hardware stack levels used: 1
  5654 ;; Hardware stack levels required when called: 2
  5655 ;; This function calls:
  5656 ;;		Nothing
  5657 ;; This function is called by:
  5658 ;;		_Timer0_Init
  5659 ;; This function uses a non-reentrant model
  5660 ;;
  5661                           
  5662                           	psect	text26
  5663   002826                     __ptext26:
  5664                           	callstack 0
  5665   002826                     _Timer0_Mode_Select:
  5666                           	callstack 26
  5667   002826                     
  5668                           ;mcal_layer/Timer0/hal_timr0.c: 122:     if(1 == _timer->timer0_mode){
  5669   002826  EE20 F006          	lfsr	2,6
  5670   00282A  5041               	movf	Timer0_Mode_Select@_timer^0,w,c
  5671   00282C  26D9               	addwf	fsr2l,f,c
  5672   00282E  5042               	movf	(Timer0_Mode_Select@_timer+1)^0,w,c
  5673   002830  22DA               	addwfc	fsr2h,f,c
  5674   002832  A4DF               	btfss	indf2,2,c
  5675   002834  EF1E  F014         	goto	u6081
  5676   002838  EF20  F014         	goto	u6080
  5677   00283C                     u6081:
  5678   00283C  EF23  F014         	goto	l7463
  5679   002840                     u6080:
  5680   002840                     
  5681                           ;mcal_layer/Timer0/hal_timr0.c: 123:         (T0CONbits.T0CS = 0);
  5682   002840  9AD5               	bcf	213,5,c	;volatile
  5683                           
  5684                           ;mcal_layer/Timer0/hal_timr0.c: 124:     }
  5685   002842  EF51  F014         	goto	l1320
  5686   002846                     l7463:
  5687   002846  EE20 F006          	lfsr	2,6
  5688   00284A  5041               	movf	Timer0_Mode_Select@_timer^0,w,c
  5689   00284C  26D9               	addwf	fsr2l,f,c
  5690   00284E  5042               	movf	(Timer0_Mode_Select@_timer+1)^0,w,c
  5691   002850  22DA               	addwfc	fsr2h,f,c
  5692   002852  B4DF               	btfsc	indf2,2,c
  5693   002854  EF2E  F014         	goto	u6091
  5694   002858  EF30  F014         	goto	u6090
  5695   00285C                     u6091:
  5696   00285C  EF51  F014         	goto	l1320
  5697   002860                     u6090:
  5698   002860                     
  5699                           ;mcal_layer/Timer0/hal_timr0.c: 126:         (T0CONbits.T0CS = 1);
  5700   002860  8AD5               	bsf	213,5,c	;volatile
  5701   002862                     
  5702                           ;mcal_layer/Timer0/hal_timr0.c: 127:         if(1 == _timer->timer0_counter_edge){
  5703   002862  EE20 F006          	lfsr	2,6
  5704   002866  5041               	movf	Timer0_Mode_Select@_timer^0,w,c
  5705   002868  26D9               	addwf	fsr2l,f,c
  5706   00286A  5042               	movf	(Timer0_Mode_Select@_timer+1)^0,w,c
  5707   00286C  22DA               	addwfc	fsr2h,f,c
  5708   00286E  A2DF               	btfss	indf2,1,c
  5709   002870  EF3C  F014         	goto	u6101
  5710   002874  EF3E  F014         	goto	u6100
  5711   002878                     u6101:
  5712   002878  EF41  F014         	goto	l7471
  5713   00287C                     u6100:
  5714   00287C                     
  5715                           ;mcal_layer/Timer0/hal_timr0.c: 128:             (T0CONbits.T0SE = 0);
  5716   00287C  98D5               	bcf	213,4,c	;volatile
  5717                           
  5718                           ;mcal_layer/Timer0/hal_timr0.c: 129:         }
  5719   00287E  EF51  F014         	goto	l1320
  5720   002882                     l7471:
  5721   002882  EE20 F006          	lfsr	2,6
  5722   002886  5041               	movf	Timer0_Mode_Select@_timer^0,w,c
  5723   002888  26D9               	addwf	fsr2l,f,c
  5724   00288A  5042               	movf	(Timer0_Mode_Select@_timer+1)^0,w,c
  5725   00288C  22DA               	addwfc	fsr2h,f,c
  5726   00288E  B2DF               	btfsc	indf2,1,c
  5727   002890  EF4C  F014         	goto	u6111
  5728   002894  EF4E  F014         	goto	u6110
  5729   002898                     u6111:
  5730   002898  EF51  F014         	goto	l1319
  5731   00289C                     u6110:
  5732   00289C                     
  5733                           ;mcal_layer/Timer0/hal_timr0.c: 131:             (T0CONbits.T0SE = 1);
  5734   00289C  88D5               	bsf	213,4,c	;volatile
  5735                           
  5736                           ;mcal_layer/Timer0/hal_timr0.c: 132:         }
  5737   00289E  EF51  F014         	goto	l1320
  5738   0028A2                     l1319:
  5739   0028A2                     l1320:
  5740   0028A2  0012               	return		;funcret
  5741   0028A4                     __end_of_Timer0_Mode_Select:
  5742                           	callstack 0
  5743                           
  5744 ;; *************** function ___lwmod *****************
  5745 ;; Defined at:
  5746 ;;		line 7 in file "C:\Program Files\Microchip\xc8\v2.41\pic\sources\c99\common\lwmod.c"
  5747 ;; Parameters:    Size  Location     Type
  5748 ;;  dividend        2    1[COMRAM] unsigned int 
  5749 ;;  divisor         2    3[COMRAM] unsigned int 
  5750 ;; Auto vars:     Size  Location     Type
  5751 ;;  counter         1    5[COMRAM] unsigned char 
  5752 ;; Return value:  Size  Location     Type
  5753 ;;                  2    1[COMRAM] unsigned int 
  5754 ;; Registers used:
  5755 ;;		wreg, status,2, status,0
  5756 ;; Tracked objects:
  5757 ;;		On entry : 0/0
  5758 ;;		On exit  : 0/0
  5759 ;;		Unchanged: 0/0
  5760 ;; Data sizes:     COMRAM   BANK0   BANK1   BANK2   BANK3   BANK4   BANK5   BANK6   BANK7   BANK8   BANK9  BANK10  BANK1
      +1  BANK12  BANK13  BANK14  BANK15
  5761 ;;      Params:         4       0       0       0       0       0       0       0       0       0       0       0       
      +0       0       0       0       0
  5762 ;;      Locals:         1       0       0       0       0       0       0       0       0       0       0       0       
      +0       0       0       0       0
  5763 ;;      Temps:          0       0       0       0       0       0       0       0       0       0       0       0       
      +0       0       0       0       0
  5764 ;;      Totals:         5       0       0       0       0       0       0       0       0       0       0       0       
      +0       0       0       0       0
  5765 ;;Total ram usage:        5 bytes
  5766 ;; Hardware stack levels used: 1
  5767 ;; Hardware stack levels required when called: 2
  5768 ;; This function calls:
  5769 ;;		Nothing
  5770 ;; This function is called by:
  5771 ;;		_main
  5772 ;; This function uses a non-reentrant model
  5773 ;;
  5774                           
  5775                           	psect	text27
  5776   002CBC                     __ptext27:
  5777                           	callstack 0
  5778   002CBC                     ___lwmod:
  5779                           	callstack 28
  5780   002CBC  5043               	movf	___lwmod@divisor^0,w,c
  5781   002CBE  1044               	iorwf	(___lwmod@divisor+1)^0,w,c
  5782   002CC0  B4D8               	btfsc	status,2,c
  5783   002CC2  EF65  F016         	goto	u6711
  5784   002CC6  EF67  F016         	goto	u6710
  5785   002CCA                     u6711:
  5786   002CCA  EF8B  F016         	goto	l2218
  5787   002CCE                     u6710:
  5788   002CCE  0E01               	movlw	1
  5789   002CD0  6E45               	movwf	___lwmod@counter^0,c
  5790   002CD2  EF6F  F016         	goto	l8083
  5791   002CD6                     l8081:
  5792   002CD6  90D8               	bcf	status,0,c
  5793   002CD8  3643               	rlcf	___lwmod@divisor^0,f,c
  5794   002CDA  3644               	rlcf	(___lwmod@divisor+1)^0,f,c
  5795   002CDC  2A45               	incf	___lwmod@counter^0,f,c
  5796   002CDE                     l8083:
  5797   002CDE  AE44               	btfss	(___lwmod@divisor+1)^0,7,c
  5798   002CE0  EF74  F016         	goto	u6721
  5799   002CE4  EF76  F016         	goto	u6720
  5800   002CE8                     u6721:
  5801   002CE8  EF6B  F016         	goto	l8081
  5802   002CEC                     u6720:
  5803   002CEC                     l8085:
  5804   002CEC  5043               	movf	___lwmod@divisor^0,w,c
  5805   002CEE  5C41               	subwf	___lwmod@dividend^0,w,c
  5806   002CF0  5044               	movf	(___lwmod@divisor+1)^0,w,c
  5807   002CF2  5842               	subwfb	(___lwmod@dividend+1)^0,w,c
  5808   002CF4  A0D8               	btfss	status,0,c
  5809   002CF6  EF7F  F016         	goto	u6731
  5810   002CFA  EF81  F016         	goto	u6730
  5811   002CFE                     u6731:
  5812   002CFE  EF85  F016         	goto	l8089
  5813   002D02                     u6730:
  5814   002D02  5043               	movf	___lwmod@divisor^0,w,c
  5815   002D04  5E41               	subwf	___lwmod@dividend^0,f,c
  5816   002D06  5044               	movf	(___lwmod@divisor+1)^0,w,c
  5817   002D08  5A42               	subwfb	(___lwmod@dividend+1)^0,f,c
  5818   002D0A                     l8089:
  5819   002D0A  90D8               	bcf	status,0,c
  5820   002D0C  3244               	rrcf	(___lwmod@divisor+1)^0,f,c
  5821   002D0E  3243               	rrcf	___lwmod@divisor^0,f,c
  5822   002D10  2E45               	decfsz	___lwmod@counter^0,f,c
  5823   002D12  EF76  F016         	goto	l8085
  5824   002D16                     l2218:
  5825   002D16  C041  F041         	movff	___lwmod@dividend,?___lwmod
  5826   002D1A  C042  F042         	movff	___lwmod@dividend+1,?___lwmod+1
  5827   002D1E  0012               	return		;funcret
  5828   002D20                     __end_of___lwmod:
  5829                           	callstack 0
  5830                           
  5831 ;; *************** function ___lwdiv *****************
  5832 ;; Defined at:
  5833 ;;		line 7 in file "C:\Program Files\Microchip\xc8\v2.41\pic\sources\c99\common\lwdiv.c"
  5834 ;; Parameters:    Size  Location     Type
  5835 ;;  dividend        2    1[COMRAM] unsigned int 
  5836 ;;  divisor         2    3[COMRAM] unsigned int 
  5837 ;; Auto vars:     Size  Location     Type
  5838 ;;  quotient        2    6[COMRAM] unsigned int 
  5839 ;;  counter         1    5[COMRAM] unsigned char 
  5840 ;; Return value:  Size  Location     Type
  5841 ;;                  2    1[COMRAM] unsigned int 
  5842 ;; Registers used:
  5843 ;;		wreg, status,2, status,0
  5844 ;; Tracked objects:
  5845 ;;		On entry : 0/0
  5846 ;;		On exit  : 0/0
  5847 ;;		Unchanged: 0/0
  5848 ;; Data sizes:     COMRAM   BANK0   BANK1   BANK2   BANK3   BANK4   BANK5   BANK6   BANK7   BANK8   BANK9  BANK10  BANK1
      +1  BANK12  BANK13  BANK14  BANK15
  5849 ;;      Params:         4       0       0       0       0       0       0       0       0       0       0       0       
      +0       0       0       0       0
  5850 ;;      Locals:         3       0       0       0       0       0       0       0       0       0       0       0       
      +0       0       0       0       0
  5851 ;;      Temps:          0       0       0       0       0       0       0       0       0       0       0       0       
      +0       0       0       0       0
  5852 ;;      Totals:         7       0       0       0       0       0       0       0       0       0       0       0       
      +0       0       0       0       0
  5853 ;;Total ram usage:        7 bytes
  5854 ;; Hardware stack levels used: 1
  5855 ;; Hardware stack levels required when called: 2
  5856 ;; This function calls:
  5857 ;;		Nothing
  5858 ;; This function is called by:
  5859 ;;		_main
  5860 ;; This function uses a non-reentrant model
  5861 ;;
  5862                           
  5863                           	psect	text28
  5864   002B74                     __ptext28:
  5865                           	callstack 0
  5866   002B74                     ___lwdiv:
  5867                           	callstack 28
  5868   002B74  0E00               	movlw	0
  5869   002B76  6E47               	movwf	(___lwdiv@quotient+1)^0,c
  5870   002B78  0E00               	movlw	0
  5871   002B7A  6E46               	movwf	___lwdiv@quotient^0,c
  5872   002B7C  5043               	movf	___lwdiv@divisor^0,w,c
  5873   002B7E  1044               	iorwf	(___lwdiv@divisor+1)^0,w,c
  5874   002B80  B4D8               	btfsc	status,2,c
  5875   002B82  EFC5  F015         	goto	u6681
  5876   002B86  EFC7  F015         	goto	u6680
  5877   002B8A                     u6681:
  5878   002B8A  EFEF  F015         	goto	l2208
  5879   002B8E                     u6680:
  5880   002B8E  0E01               	movlw	1
  5881   002B90  6E45               	movwf	___lwdiv@counter^0,c
  5882   002B92  EFCF  F015         	goto	l8063
  5883   002B96                     l8061:
  5884   002B96  90D8               	bcf	status,0,c
  5885   002B98  3643               	rlcf	___lwdiv@divisor^0,f,c
  5886   002B9A  3644               	rlcf	(___lwdiv@divisor+1)^0,f,c
  5887   002B9C  2A45               	incf	___lwdiv@counter^0,f,c
  5888   002B9E                     l8063:
  5889   002B9E  AE44               	btfss	(___lwdiv@divisor+1)^0,7,c
  5890   002BA0  EFD4  F015         	goto	u6691
  5891   002BA4  EFD6  F015         	goto	u6690
  5892   002BA8                     u6691:
  5893   002BA8  EFCB  F015         	goto	l8061
  5894   002BAC                     u6690:
  5895   002BAC                     l8065:
  5896   002BAC  90D8               	bcf	status,0,c
  5897   002BAE  3646               	rlcf	___lwdiv@quotient^0,f,c
  5898   002BB0  3647               	rlcf	(___lwdiv@quotient+1)^0,f,c
  5899   002BB2  5043               	movf	___lwdiv@divisor^0,w,c
  5900   002BB4  5C41               	subwf	___lwdiv@dividend^0,w,c
  5901   002BB6  5044               	movf	(___lwdiv@divisor+1)^0,w,c
  5902   002BB8  5842               	subwfb	(___lwdiv@dividend+1)^0,w,c
  5903   002BBA  A0D8               	btfss	status,0,c
  5904   002BBC  EFE2  F015         	goto	u6701
  5905   002BC0  EFE4  F015         	goto	u6700
  5906   002BC4                     u6701:
  5907   002BC4  EFE9  F015         	goto	l8073
  5908   002BC8                     u6700:
  5909   002BC8  5043               	movf	___lwdiv@divisor^0,w,c
  5910   002BCA  5E41               	subwf	___lwdiv@dividend^0,f,c
  5911   002BCC  5044               	movf	(___lwdiv@divisor+1)^0,w,c
  5912   002BCE  5A42               	subwfb	(___lwdiv@dividend+1)^0,f,c
  5913   002BD0  8046               	bsf	___lwdiv@quotient^0,0,c
  5914   002BD2                     l8073:
  5915   002BD2  90D8               	bcf	status,0,c
  5916   002BD4  3244               	rrcf	(___lwdiv@divisor+1)^0,f,c
  5917   002BD6  3243               	rrcf	___lwdiv@divisor^0,f,c
  5918   002BD8  2E45               	decfsz	___lwdiv@counter^0,f,c
  5919   002BDA  EFD6  F015         	goto	l8065
  5920   002BDE                     l2208:
  5921   002BDE  C046  F041         	movff	___lwdiv@quotient,?___lwdiv
  5922   002BE2  C047  F042         	movff	___lwdiv@quotient+1,?___lwdiv+1
  5923   002BE6  0012               	return		;funcret
  5924   002BE8                     __end_of___lwdiv:
  5925                           	callstack 0
  5926                           
  5927 ;; *************** function _Timer0_Write_Value *****************
  5928 ;; Defined at:
  5929 ;;		line 73 in file "mcal_layer/Timer0/hal_timr0.c"
  5930 ;; Parameters:    Size  Location     Type
  5931 ;;  _timer          2    1[COMRAM] PTR const struct .
  5932 ;;		 -> timer0_counter_obj(7), 
  5933 ;;  _value          2    3[COMRAM] unsigned short 
  5934 ;; Auto vars:     Size  Location     Type
  5935 ;;  ret             1    5[COMRAM] unsigned char 
  5936 ;; Return value:  Size  Location     Type
  5937 ;;                  1    wreg      unsigned char 
  5938 ;; Registers used:
  5939 ;;		wreg, status,2, status,0
  5940 ;; Tracked objects:
  5941 ;;		On entry : 0/0
  5942 ;;		On exit  : 0/0
  5943 ;;		Unchanged: 0/0
  5944 ;; Data sizes:     COMRAM   BANK0   BANK1   BANK2   BANK3   BANK4   BANK5   BANK6   BANK7   BANK8   BANK9  BANK10  BANK1
      +1  BANK12  BANK13  BANK14  BANK15
  5945 ;;      Params:         4       0       0       0       0       0       0       0       0       0       0       0       
      +0       0       0       0       0
  5946 ;;      Locals:         1       0       0       0       0       0       0       0       0       0       0       0       
      +0       0       0       0       0
  5947 ;;      Temps:          0       0       0       0       0       0       0       0       0       0       0       0       
      +0       0       0       0       0
  5948 ;;      Totals:         5       0       0       0       0       0       0       0       0       0       0       0       
      +0       0       0       0       0
  5949 ;;Total ram usage:        5 bytes
  5950 ;; Hardware stack levels used: 1
  5951 ;; Hardware stack levels required when called: 2
  5952 ;; This function calls:
  5953 ;;		Nothing
  5954 ;; This function is called by:
  5955 ;;		_main
  5956 ;; This function uses a non-reentrant model
  5957 ;;
  5958                           
  5959                           	psect	text29
  5960   002F8C                     __ptext29:
  5961                           	callstack 0
  5962   002F8C                     _Timer0_Write_Value:
  5963                           	callstack 28
  5964   002F8C                     
  5965                           ;mcal_layer/Timer0/hal_timr0.c: 75:     if(((void*)0) == _timer){
  5966   002F8C  5041               	movf	Timer0_Write_Value@_timer^0,w,c
  5967   002F8E  1042               	iorwf	(Timer0_Write_Value@_timer+1)^0,w,c
  5968   002F90  A4D8               	btfss	status,2,c
  5969   002F92  EFCD  F017         	goto	u6661
  5970   002F96  EFCF  F017         	goto	u6660
  5971   002F9A                     u6661:
  5972   002F9A  EFD3  F017         	goto	l8009
  5973   002F9E                     u6660:
  5974   002F9E                     
  5975                           ;mcal_layer/Timer0/hal_timr0.c: 76:         ret = ( Std_returntype)0x00;
  5976   002F9E  0E00               	movlw	0
  5977   002FA0  6E45               	movwf	Timer0_Write_Value@ret^0,c
  5978                           
  5979                           ;mcal_layer/Timer0/hal_timr0.c: 77:     }
  5980   002FA2  EFD9  F017         	goto	l1292
  5981   002FA6                     l8009:
  5982                           
  5983                           ;mcal_layer/Timer0/hal_timr0.c: 79:         TMR0H = (_value) >> 8;
  5984   002FA6  5044               	movf	(Timer0_Write_Value@_value+1)^0,w,c
  5985   002FA8  6ED7               	movwf	215,c	;volatile
  5986   002FAA                     
  5987                           ;mcal_layer/Timer0/hal_timr0.c: 80:         TMR0L = (uint8)(_value);
  5988   002FAA  C043  FFD6         	movff	Timer0_Write_Value@_value,4054	;volatile
  5989                           
  5990                           ;mcal_layer/Timer0/hal_timr0.c: 81:         ret = ( Std_returntype)0x01;
  5991   002FAE  0E01               	movlw	1
  5992   002FB0  6E45               	movwf	Timer0_Write_Value@ret^0,c
  5993   002FB2                     l1292:
  5994                           
  5995                           ;mcal_layer/Timer0/hal_timr0.c: 83:     return ret;
  5996   002FB2  5045               	movf	Timer0_Write_Value@ret^0,w,c
  5997   002FB4  0012               	return		;funcret
  5998   002FB6                     __end_of_Timer0_Write_Value:
  5999                           	callstack 0
  6000                           
  6001 ;; *************** function _Timer0_Read_Value *****************
  6002 ;; Defined at:
  6003 ;;		line 86 in file "mcal_layer/Timer0/hal_timr0.c"
  6004 ;; Parameters:    Size  Location     Type
  6005 ;;  _timer          2    1[COMRAM] PTR const struct .
  6006 ;;		 -> timer0_counter_obj(7), 
  6007 ;;  _value          2    3[COMRAM] PTR unsigned short 
  6008 ;;		 -> Counter_Value(2), 
  6009 ;; Auto vars:     Size  Location     Type
  6010 ;;  ret             1    9[COMRAM] unsigned char 
  6011 ;;  l_tmr0h         1    8[COMRAM] unsigned char 
  6012 ;;  l_tmr0l         1    7[COMRAM] unsigned char 
  6013 ;; Return value:  Size  Location     Type
  6014 ;;                  1    wreg      unsigned char 
  6015 ;; Registers used:
  6016 ;;		wreg, fsr2l, fsr2h, status,2, status,0
  6017 ;; Tracked objects:
  6018 ;;		On entry : 0/0
  6019 ;;		On exit  : 0/0
  6020 ;;		Unchanged: 0/0
  6021 ;; Data sizes:     COMRAM   BANK0   BANK1   BANK2   BANK3   BANK4   BANK5   BANK6   BANK7   BANK8   BANK9  BANK10  BANK1
      +1  BANK12  BANK13  BANK14  BANK15
  6022 ;;      Params:         4       0       0       0       0       0       0       0       0       0       0       0       
      +0       0       0       0       0
  6023 ;;      Locals:         3       0       0       0       0       0       0       0       0       0       0       0       
      +0       0       0       0       0
  6024 ;;      Temps:          2       0       0       0       0       0       0       0       0       0       0       0       
      +0       0       0       0       0
  6025 ;;      Totals:         9       0       0       0       0       0       0       0       0       0       0       0       
      +0       0       0       0       0
  6026 ;;Total ram usage:        9 bytes
  6027 ;; Hardware stack levels used: 1
  6028 ;; Hardware stack levels required when called: 2
  6029 ;; This function calls:
  6030 ;;		Nothing
  6031 ;; This function is called by:
  6032 ;;		_main
  6033 ;; This function uses a non-reentrant model
  6034 ;;
  6035                           
  6036                           	psect	text30
  6037   002E3C                     __ptext30:
  6038                           	callstack 0
  6039   002E3C                     _Timer0_Read_Value:
  6040                           	callstack 28
  6041   002E3C                     
  6042                           ;mcal_layer/Timer0/hal_timr0.c: 88:     uint8 l_tmr0l = 0, l_tmr0h = 0;
  6043   002E3C  0E00               	movlw	0
  6044   002E3E  6E47               	movwf	Timer0_Read_Value@l_tmr0l^0,c
  6045   002E40  0E00               	movlw	0
  6046   002E42  6E48               	movwf	Timer0_Read_Value@l_tmr0h^0,c
  6047   002E44                     
  6048                           ;mcal_layer/Timer0/hal_timr0.c: 89:     if(((void*)0) == _timer){
  6049   002E44  5041               	movf	Timer0_Read_Value@_timer^0,w,c
  6050   002E46  1042               	iorwf	(Timer0_Read_Value@_timer+1)^0,w,c
  6051   002E48  A4D8               	btfss	status,2,c
  6052   002E4A  EF29  F017         	goto	u6671
  6053   002E4E  EF2B  F017         	goto	u6670
  6054   002E52                     u6671:
  6055   002E52  EF2F  F017         	goto	l1296
  6056   002E56                     u6670:
  6057   002E56                     
  6058                           ;mcal_layer/Timer0/hal_timr0.c: 90:         ret = ( Std_returntype)0x00;
  6059   002E56  0E00               	movlw	0
  6060   002E58  6E49               	movwf	Timer0_Read_Value@ret^0,c
  6061                           
  6062                           ;mcal_layer/Timer0/hal_timr0.c: 91:     }
  6063   002E5A  EF47  F017         	goto	l8025
  6064   002E5E                     l1296:
  6065                           
  6066                           ;mcal_layer/Timer0/hal_timr0.c: 93:         l_tmr0l = TMR0L;
  6067   002E5E  CFD6 F047          	movff	4054,Timer0_Read_Value@l_tmr0l	;volatile
  6068                           
  6069                           ;mcal_layer/Timer0/hal_timr0.c: 94:         l_tmr0h = TMR0H;
  6070   002E62  CFD7 F048          	movff	4055,Timer0_Read_Value@l_tmr0h	;volatile
  6071   002E66                     
  6072                           ;mcal_layer/Timer0/hal_timr0.c: 95:         *_value = (uint16)((l_tmr0h << 8) + l_tmr0l)
      +                          ;
  6073   002E66  5047               	movf	Timer0_Read_Value@l_tmr0l^0,w,c
  6074   002E68  C048  F045         	movff	Timer0_Read_Value@l_tmr0h,??_Timer0_Read_Value
  6075   002E6C  6A46               	clrf	(??_Timer0_Read_Value+1)^0,c
  6076   002E6E  C045  F046         	movff	??_Timer0_Read_Value,??_Timer0_Read_Value+1
  6077   002E72  6A45               	clrf	??_Timer0_Read_Value^0,c
  6078   002E74  2645               	addwf	??_Timer0_Read_Value^0,f,c
  6079   002E76  0E00               	movlw	0
  6080   002E78  2246               	addwfc	(??_Timer0_Read_Value+1)^0,f,c
  6081   002E7A  C043  FFD9         	movff	Timer0_Read_Value@_value,fsr2l
  6082   002E7E  C044  FFDA         	movff	Timer0_Read_Value@_value+1,fsr2h
  6083   002E82  C045  FFDE         	movff	??_Timer0_Read_Value,postinc2
  6084   002E86  C046  FFDD         	movff	??_Timer0_Read_Value+1,postdec2
  6085   002E8A                     
  6086                           ;mcal_layer/Timer0/hal_timr0.c: 96:         ret = ( Std_returntype)0x01;
  6087   002E8A  0E01               	movlw	1
  6088   002E8C  6E49               	movwf	Timer0_Read_Value@ret^0,c
  6089   002E8E                     l8025:
  6090                           
  6091                           ;mcal_layer/Timer0/hal_timr0.c: 98:     return ret;
  6092   002E8E  5049               	movf	Timer0_Read_Value@ret^0,w,c
  6093   002E90  0012               	return		;funcret
  6094   002E92                     __end_of_Timer0_Read_Value:
  6095                           	callstack 0
  6096                           
  6097 ;; *************** function _InterruptManager *****************
  6098 ;; Defined at:
  6099 ;;		line 32 in file "interupt/mcal_interupt_manage.c"
  6100 ;; Parameters:    Size  Location     Type
  6101 ;;		None
  6102 ;; Auto vars:     Size  Location     Type
  6103 ;;		None
  6104 ;; Return value:  Size  Location     Type
  6105 ;;                  1    wreg      void 
  6106 ;; Registers used:
  6107 ;;		wreg, status,2, status,0, cstack
  6108 ;; Tracked objects:
  6109 ;;		On entry : 0/0
  6110 ;;		On exit  : 0/0
  6111 ;;		Unchanged: 0/0
  6112 ;; Data sizes:     COMRAM   BANK0   BANK1   BANK2   BANK3   BANK4   BANK5   BANK6   BANK7   BANK8   BANK9  BANK10  BANK1
      +1  BANK12  BANK13  BANK14  BANK15
  6113 ;;      Params:         0       0       0       0       0       0       0       0       0       0       0       0       
      +0       0       0       0       0
  6114 ;;      Locals:         0       0       0       0       0       0       0       0       0       0       0       0       
      +0       0       0       0       0
  6115 ;;      Temps:          0       0       0       0       0       0       0       0       0       0       0       0       
      +0       0       0       0       0
  6116 ;;      Totals:         0       0       0       0       0       0       0       0       0       0       0       0       
      +0       0       0       0       0
  6117 ;;Total ram usage:        0 bytes
  6118 ;; Hardware stack levels used: 1
  6119 ;; Hardware stack levels required when called: 1
  6120 ;; This function calls:
  6121 ;;		_ADC_ISR
  6122 ;;		_CCP1_ISR
  6123 ;;		_CCP2_ISR
  6124 ;;		_EUSART_RX_ISR
  6125 ;;		_EUSART_TX_ISR
  6126 ;;		_INT0_ISR
  6127 ;;		_INT1_ISR
  6128 ;;		_INT2_ISR
  6129 ;;		_MSSP_I2C_BC_ISR
  6130 ;;		_MSSP_I2C_ISR
  6131 ;;		_RB4_ISR
  6132 ;;		_RB5_ISR
  6133 ;;		_RB6_ISR
  6134 ;;		_RB7_ISR
  6135 ;;		_TMR0_ISR
  6136 ;;		_TMR1_ISR
  6137 ;;		_TMR2_ISR
  6138 ;;		_TMR3_ISR
  6139 ;; This function is called by:
  6140 ;;		Interrupt level 2
  6141 ;; This function uses a non-reentrant model
  6142 ;;
  6143                           
  6144                           	psect	intcode
  6145   000008                     __pintcode:
  6146                           	callstack 0
  6147   000008                     _InterruptManager:
  6148                           	callstack 24
  6149                           
  6150                           ;incstack = 0
  6151   000008  827A               	bsf	int$flags,1,c	;set compiler interrupt flag (level 2)
  6152   00000A  ED1F  F00C         	call	int_func,f	;refresh shadow registers
  6153                           
  6154                           	psect	intcode_body
  6155   00183E                     __pintcode_body:
  6156                           	callstack 24
  6157   00183E                     int_func:
  6158                           	callstack 24
  6159   00183E  0006               	pop		; remove dummy address from shadow register refresh
  6160   001840                     
  6161                           ;interupt/mcal_interupt_manage.c: 34:     if((1 == INTCONbits.INT0IE) && (1 == INTCONbit
      +                          s.INT0IF)){
  6162   001840  A8F2               	btfss	242,4,c	;volatile
  6163   001842  EF25  F00C         	goto	i2u502_41
  6164   001846  EF27  F00C         	goto	i2u502_40
  6165   00184A                     i2u502_41:
  6166   00184A  EF30  F00C         	goto	i2l1002
  6167   00184E                     i2u502_40:
  6168   00184E  A2F2               	btfss	242,1,c	;volatile
  6169   001850  EF2C  F00C         	goto	i2u503_41
  6170   001854  EF2E  F00C         	goto	i2u503_40
  6171   001858                     i2u503_41:
  6172   001858  EF30  F00C         	goto	i2l1002
  6173   00185C                     i2u503_40:
  6174   00185C                     
  6175                           ;interupt/mcal_interupt_manage.c: 35:         INT0_ISR();
  6176   00185C  EC38  F018         	call	_INT0_ISR	;wreg free
  6177   001860                     i2l1002:
  6178                           
  6179                           ;interupt/mcal_interupt_manage.c: 38:     if((1 == INTCON3bits.INT1E) && (1 == INTCON3bi
      +                          ts.INT1F)){
  6180   001860  A6F0               	btfss	240,3,c	;volatile
  6181   001862  EF35  F00C         	goto	i2u504_41
  6182   001866  EF37  F00C         	goto	i2u504_40
  6183   00186A                     i2u504_41:
  6184   00186A  EF40  F00C         	goto	i2l1004
  6185   00186E                     i2u504_40:
  6186   00186E  A0F0               	btfss	240,0,c	;volatile
  6187   001870  EF3C  F00C         	goto	i2u505_41
  6188   001874  EF3E  F00C         	goto	i2u505_40
  6189   001878                     i2u505_41:
  6190   001878  EF40  F00C         	goto	i2l1004
  6191   00187C                     i2u505_40:
  6192   00187C                     
  6193                           ;interupt/mcal_interupt_manage.c: 39:         INT1_ISR();
  6194   00187C  EC36  F018         	call	_INT1_ISR	;wreg free
  6195   001880                     i2l1004:
  6196                           
  6197                           ;interupt/mcal_interupt_manage.c: 42:     if((1 == INTCON3bits.INT2IE) && (1 == INTCON3b
      +                          its.INT2IF)){
  6198   001880  A8F0               	btfss	240,4,c	;volatile
  6199   001882  EF45  F00C         	goto	i2u506_41
  6200   001886  EF47  F00C         	goto	i2u506_40
  6201   00188A                     i2u506_41:
  6202   00188A  EF50  F00C         	goto	i2l1006
  6203   00188E                     i2u506_40:
  6204   00188E  A2F0               	btfss	240,1,c	;volatile
  6205   001890  EF4C  F00C         	goto	i2u507_41
  6206   001894  EF4E  F00C         	goto	i2u507_40
  6207   001898                     i2u507_41:
  6208   001898  EF50  F00C         	goto	i2l1006
  6209   00189C                     i2u507_40:
  6210   00189C                     
  6211                           ;interupt/mcal_interupt_manage.c: 43:         INT2_ISR();
  6212   00189C  EC34  F018         	call	_INT2_ISR	;wreg free
  6213   0018A0                     i2l1006:
  6214                           
  6215                           ;interupt/mcal_interupt_manage.c: 48:     if((1 == INTCONbits.RBIE) && (1 == INTCONbits.
      +                          RBIF) &&
  6216   0018A0  A6F2               	btfss	242,3,c	;volatile
  6217   0018A2  EF55  F00C         	goto	i2u508_41
  6218   0018A6  EF57  F00C         	goto	i2u508_40
  6219   0018AA                     i2u508_41:
  6220   0018AA  EF72  F00C         	goto	i2l1008
  6221   0018AE                     i2u508_40:
  6222   0018AE  A0F2               	btfss	242,0,c	;volatile
  6223   0018B0  EF5C  F00C         	goto	i2u509_41
  6224   0018B4  EF5E  F00C         	goto	i2u509_40
  6225   0018B8                     i2u509_41:
  6226   0018B8  EF72  F00C         	goto	i2l1008
  6227   0018BC                     i2u509_40:
  6228   0018BC  A881               	btfss	129,4,c	;volatile
  6229   0018BE  EF63  F00C         	goto	i2u510_41
  6230   0018C2  EF65  F00C         	goto	i2u510_40
  6231   0018C6                     i2u510_41:
  6232   0018C6  EF72  F00C         	goto	i2l1008
  6233   0018CA                     i2u510_40:
  6234   0018CA  046C               	decf	_RB4_Flag^0,w,c	;volatile
  6235   0018CC  A4D8               	btfss	status,2,c
  6236   0018CE  EF6B  F00C         	goto	i2u511_41
  6237   0018D2  EF6D  F00C         	goto	i2u511_40
  6238   0018D6                     i2u511_41:
  6239   0018D6  EF72  F00C         	goto	i2l1008
  6240   0018DA                     i2u511_40:
  6241   0018DA                     
  6242                           ;interupt/mcal_interupt_manage.c: 49:        (PORTBbits.RB4 == HIGH) && (RB4_Flag == 1))
      +                          {;interupt/mcal_interupt_manage.c: 50:         RB4_Flag = 0;
  6243   0018DA  0E00               	movlw	0
  6244   0018DC  6E6C               	movwf	_RB4_Flag^0,c	;volatile
  6245   0018DE                     
  6246                           ;interupt/mcal_interupt_manage.c: 51:         RB4_ISR(0);
  6247   0018DE  0E00               	movlw	0
  6248   0018E0  EC02  F018         	call	_RB4_ISR
  6249   0018E4                     i2l1008:
  6250                           
  6251                           ;interupt/mcal_interupt_manage.c: 54:     if((1 == INTCONbits.RBIE) && (1 == INTCONbits.
      +                          RBIF) &&
  6252   0018E4  A6F2               	btfss	242,3,c	;volatile
  6253   0018E6  EF77  F00C         	goto	i2u512_41
  6254   0018EA  EF79  F00C         	goto	i2u512_40
  6255   0018EE                     i2u512_41:
  6256   0018EE  EF94  F00C         	goto	i2l1010
  6257   0018F2                     i2u512_40:
  6258   0018F2  A0F2               	btfss	242,0,c	;volatile
  6259   0018F4  EF7E  F00C         	goto	i2u513_41
  6260   0018F8  EF80  F00C         	goto	i2u513_40
  6261   0018FC                     i2u513_41:
  6262   0018FC  EF94  F00C         	goto	i2l1010
  6263   001900                     i2u513_40:
  6264   001900  B881               	btfsc	129,4,c	;volatile
  6265   001902  EF85  F00C         	goto	i2u514_41
  6266   001906  EF87  F00C         	goto	i2u514_40
  6267   00190A                     i2u514_41:
  6268   00190A  EF94  F00C         	goto	i2l1010
  6269   00190E                     i2u514_40:
  6270   00190E  506C               	movf	_RB4_Flag^0,w,c	;volatile
  6271   001910  A4D8               	btfss	status,2,c
  6272   001912  EF8D  F00C         	goto	i2u515_41
  6273   001916  EF8F  F00C         	goto	i2u515_40
  6274   00191A                     i2u515_41:
  6275   00191A  EF94  F00C         	goto	i2l1010
  6276   00191E                     i2u515_40:
  6277   00191E                     
  6278                           ;interupt/mcal_interupt_manage.c: 55:        (PORTBbits.RB4 == LOW) && (RB4_Flag == 0)){
      +                          ;interupt/mcal_interupt_manage.c: 56:         RB4_Flag = 1;
  6279   00191E  0E01               	movlw	1
  6280   001920  6E6C               	movwf	_RB4_Flag^0,c	;volatile
  6281   001922                     
  6282                           ;interupt/mcal_interupt_manage.c: 57:         RB4_ISR(1);
  6283   001922  0E01               	movlw	1
  6284   001924  EC02  F018         	call	_RB4_ISR
  6285   001928                     i2l1010:
  6286                           
  6287                           ;interupt/mcal_interupt_manage.c: 60:     if((1 == INTCONbits.RBIE) && (1 == INTCONbits.
      +                          RBIF) &&
  6288   001928  A6F2               	btfss	242,3,c	;volatile
  6289   00192A  EF99  F00C         	goto	i2u516_41
  6290   00192E  EF9B  F00C         	goto	i2u516_40
  6291   001932                     i2u516_41:
  6292   001932  EFB6  F00C         	goto	i2l1012
  6293   001936                     i2u516_40:
  6294   001936  A0F2               	btfss	242,0,c	;volatile
  6295   001938  EFA0  F00C         	goto	i2u517_41
  6296   00193C  EFA2  F00C         	goto	i2u517_40
  6297   001940                     i2u517_41:
  6298   001940  EFB6  F00C         	goto	i2l1012
  6299   001944                     i2u517_40:
  6300   001944  AA81               	btfss	129,5,c	;volatile
  6301   001946  EFA7  F00C         	goto	i2u518_41
  6302   00194A  EFA9  F00C         	goto	i2u518_40
  6303   00194E                     i2u518_41:
  6304   00194E  EFB6  F00C         	goto	i2l1012
  6305   001952                     i2u518_40:
  6306   001952  046B               	decf	_RB5_Flag^0,w,c	;volatile
  6307   001954  A4D8               	btfss	status,2,c
  6308   001956  EFAF  F00C         	goto	i2u519_41
  6309   00195A  EFB1  F00C         	goto	i2u519_40
  6310   00195E                     i2u519_41:
  6311   00195E  EFB6  F00C         	goto	i2l1012
  6312   001962                     i2u519_40:
  6313   001962                     
  6314                           ;interupt/mcal_interupt_manage.c: 61:        (PORTBbits.RB5 == HIGH) && (RB5_Flag == 1))
      +                          {;interupt/mcal_interupt_manage.c: 62:         RB5_Flag = 0;
  6315   001962  0E00               	movlw	0
  6316   001964  6E6B               	movwf	_RB5_Flag^0,c	;volatile
  6317   001966                     
  6318                           ;interupt/mcal_interupt_manage.c: 63:         RB5_ISR(0);
  6319   001966  0E00               	movlw	0
  6320   001968  ECF5  F017         	call	_RB5_ISR
  6321   00196C                     i2l1012:
  6322                           
  6323                           ;interupt/mcal_interupt_manage.c: 66:     if((1 == INTCONbits.RBIE) && (1 == INTCONbits.
      +                          RBIF) &&
  6324   00196C  A6F2               	btfss	242,3,c	;volatile
  6325   00196E  EFBB  F00C         	goto	i2u520_41
  6326   001972  EFBD  F00C         	goto	i2u520_40
  6327   001976                     i2u520_41:
  6328   001976  EFD8  F00C         	goto	i2l1014
  6329   00197A                     i2u520_40:
  6330   00197A  A0F2               	btfss	242,0,c	;volatile
  6331   00197C  EFC2  F00C         	goto	i2u521_41
  6332   001980  EFC4  F00C         	goto	i2u521_40
  6333   001984                     i2u521_41:
  6334   001984  EFD8  F00C         	goto	i2l1014
  6335   001988                     i2u521_40:
  6336   001988  BA81               	btfsc	129,5,c	;volatile
  6337   00198A  EFC9  F00C         	goto	i2u522_41
  6338   00198E  EFCB  F00C         	goto	i2u522_40
  6339   001992                     i2u522_41:
  6340   001992  EFD8  F00C         	goto	i2l1014
  6341   001996                     i2u522_40:
  6342   001996  506B               	movf	_RB5_Flag^0,w,c	;volatile
  6343   001998  A4D8               	btfss	status,2,c
  6344   00199A  EFD1  F00C         	goto	i2u523_41
  6345   00199E  EFD3  F00C         	goto	i2u523_40
  6346   0019A2                     i2u523_41:
  6347   0019A2  EFD8  F00C         	goto	i2l1014
  6348   0019A6                     i2u523_40:
  6349   0019A6                     
  6350                           ;interupt/mcal_interupt_manage.c: 67:        (PORTBbits.RB5 == LOW) && (RB5_Flag == 0)){
      +                          ;interupt/mcal_interupt_manage.c: 68:         RB5_Flag = 1;
  6351   0019A6  0E01               	movlw	1
  6352   0019A8  6E6B               	movwf	_RB5_Flag^0,c	;volatile
  6353   0019AA                     
  6354                           ;interupt/mcal_interupt_manage.c: 69:         RB5_ISR(1);
  6355   0019AA  0E01               	movlw	1
  6356   0019AC  ECF5  F017         	call	_RB5_ISR
  6357   0019B0                     i2l1014:
  6358                           
  6359                           ;interupt/mcal_interupt_manage.c: 72:     if((1 == INTCONbits.RBIE) && (1 == INTCONbits.
      +                          RBIF) &&
  6360   0019B0  A6F2               	btfss	242,3,c	;volatile
  6361   0019B2  EFDD  F00C         	goto	i2u524_41
  6362   0019B6  EFDF  F00C         	goto	i2u524_40
  6363   0019BA                     i2u524_41:
  6364   0019BA  EFFA  F00C         	goto	i2l1016
  6365   0019BE                     i2u524_40:
  6366   0019BE  A0F2               	btfss	242,0,c	;volatile
  6367   0019C0  EFE4  F00C         	goto	i2u525_41
  6368   0019C4  EFE6  F00C         	goto	i2u525_40
  6369   0019C8                     i2u525_41:
  6370   0019C8  EFFA  F00C         	goto	i2l1016
  6371   0019CC                     i2u525_40:
  6372   0019CC  AC81               	btfss	129,6,c	;volatile
  6373   0019CE  EFEB  F00C         	goto	i2u526_41
  6374   0019D2  EFED  F00C         	goto	i2u526_40
  6375   0019D6                     i2u526_41:
  6376   0019D6  EFFA  F00C         	goto	i2l1016
  6377   0019DA                     i2u526_40:
  6378   0019DA  046A               	decf	_RB6_Flag^0,w,c	;volatile
  6379   0019DC  A4D8               	btfss	status,2,c
  6380   0019DE  EFF3  F00C         	goto	i2u527_41
  6381   0019E2  EFF5  F00C         	goto	i2u527_40
  6382   0019E6                     i2u527_41:
  6383   0019E6  EFFA  F00C         	goto	i2l1016
  6384   0019EA                     i2u527_40:
  6385   0019EA                     
  6386                           ;interupt/mcal_interupt_manage.c: 73:        (PORTBbits.RB6 == HIGH) && (RB6_Flag == 1))
      +                          {;interupt/mcal_interupt_manage.c: 74:         RB6_Flag = 0;
  6387   0019EA  0E00               	movlw	0
  6388   0019EC  6E6A               	movwf	_RB6_Flag^0,c	;volatile
  6389   0019EE                     
  6390                           ;interupt/mcal_interupt_manage.c: 75:         RB6_ISR(0);
  6391   0019EE  0E00               	movlw	0
  6392   0019F0  ECE8  F017         	call	_RB6_ISR
  6393   0019F4                     i2l1016:
  6394                           
  6395                           ;interupt/mcal_interupt_manage.c: 78:     if((1 == INTCONbits.RBIE) && (1 == INTCONbits.
      +                          RBIF) &&
  6396   0019F4  A6F2               	btfss	242,3,c	;volatile
  6397   0019F6  EFFF  F00C         	goto	i2u528_41
  6398   0019FA  EF01  F00D         	goto	i2u528_40
  6399   0019FE                     i2u528_41:
  6400   0019FE  EF1C  F00D         	goto	i2l1018
  6401   001A02                     i2u528_40:
  6402   001A02  A0F2               	btfss	242,0,c	;volatile
  6403   001A04  EF06  F00D         	goto	i2u529_41
  6404   001A08  EF08  F00D         	goto	i2u529_40
  6405   001A0C                     i2u529_41:
  6406   001A0C  EF1C  F00D         	goto	i2l1018
  6407   001A10                     i2u529_40:
  6408   001A10  BC81               	btfsc	129,6,c	;volatile
  6409   001A12  EF0D  F00D         	goto	i2u530_41
  6410   001A16  EF0F  F00D         	goto	i2u530_40
  6411   001A1A                     i2u530_41:
  6412   001A1A  EF1C  F00D         	goto	i2l1018
  6413   001A1E                     i2u530_40:
  6414   001A1E  506A               	movf	_RB6_Flag^0,w,c	;volatile
  6415   001A20  A4D8               	btfss	status,2,c
  6416   001A22  EF15  F00D         	goto	i2u531_41
  6417   001A26  EF17  F00D         	goto	i2u531_40
  6418   001A2A                     i2u531_41:
  6419   001A2A  EF1C  F00D         	goto	i2l1018
  6420   001A2E                     i2u531_40:
  6421   001A2E                     
  6422                           ;interupt/mcal_interupt_manage.c: 79:        (PORTBbits.RB6 == LOW) && (RB6_Flag == 0)){
      +                          ;interupt/mcal_interupt_manage.c: 80:         RB6_Flag = 1;
  6423   001A2E  0E01               	movlw	1
  6424   001A30  6E6A               	movwf	_RB6_Flag^0,c	;volatile
  6425   001A32                     
  6426                           ;interupt/mcal_interupt_manage.c: 81:         RB6_ISR(1);
  6427   001A32  0E01               	movlw	1
  6428   001A34  ECE8  F017         	call	_RB6_ISR
  6429   001A38                     i2l1018:
  6430                           
  6431                           ;interupt/mcal_interupt_manage.c: 84:     if((1 == INTCONbits.RBIE) && (1 == INTCONbits.
      +                          RBIF) &&
  6432   001A38  A6F2               	btfss	242,3,c	;volatile
  6433   001A3A  EF21  F00D         	goto	i2u532_41
  6434   001A3E  EF23  F00D         	goto	i2u532_40
  6435   001A42                     i2u532_41:
  6436   001A42  EF3E  F00D         	goto	i2l1020
  6437   001A46                     i2u532_40:
  6438   001A46  A0F2               	btfss	242,0,c	;volatile
  6439   001A48  EF28  F00D         	goto	i2u533_41
  6440   001A4C  EF2A  F00D         	goto	i2u533_40
  6441   001A50                     i2u533_41:
  6442   001A50  EF3E  F00D         	goto	i2l1020
  6443   001A54                     i2u533_40:
  6444   001A54  AE81               	btfss	129,7,c	;volatile
  6445   001A56  EF2F  F00D         	goto	i2u534_41
  6446   001A5A  EF31  F00D         	goto	i2u534_40
  6447   001A5E                     i2u534_41:
  6448   001A5E  EF3E  F00D         	goto	i2l1020
  6449   001A62                     i2u534_40:
  6450   001A62  0469               	decf	_RB7_Flag^0,w,c	;volatile
  6451   001A64  A4D8               	btfss	status,2,c
  6452   001A66  EF37  F00D         	goto	i2u535_41
  6453   001A6A  EF39  F00D         	goto	i2u535_40
  6454   001A6E                     i2u535_41:
  6455   001A6E  EF3E  F00D         	goto	i2l1020
  6456   001A72                     i2u535_40:
  6457   001A72                     
  6458                           ;interupt/mcal_interupt_manage.c: 85:        (PORTBbits.RB7 == HIGH) && (RB7_Flag == 1))
      +                          {;interupt/mcal_interupt_manage.c: 86:         RB7_Flag = 0;
  6459   001A72  0E00               	movlw	0
  6460   001A74  6E69               	movwf	_RB7_Flag^0,c	;volatile
  6461   001A76                     
  6462                           ;interupt/mcal_interupt_manage.c: 87:         RB7_ISR(0);
  6463   001A76  0E00               	movlw	0
  6464   001A78  ECDB  F017         	call	_RB7_ISR
  6465   001A7C                     i2l1020:
  6466                           
  6467                           ;interupt/mcal_interupt_manage.c: 90:     if((1 == INTCONbits.RBIE) && (1 == INTCONbits.
      +                          RBIF) &&
  6468   001A7C  A6F2               	btfss	242,3,c	;volatile
  6469   001A7E  EF43  F00D         	goto	i2u536_41
  6470   001A82  EF45  F00D         	goto	i2u536_40
  6471   001A86                     i2u536_41:
  6472   001A86  EF60  F00D         	goto	i2l1022
  6473   001A8A                     i2u536_40:
  6474   001A8A  A0F2               	btfss	242,0,c	;volatile
  6475   001A8C  EF4A  F00D         	goto	i2u537_41
  6476   001A90  EF4C  F00D         	goto	i2u537_40
  6477   001A94                     i2u537_41:
  6478   001A94  EF60  F00D         	goto	i2l1022
  6479   001A98                     i2u537_40:
  6480   001A98  BE81               	btfsc	129,7,c	;volatile
  6481   001A9A  EF51  F00D         	goto	i2u538_41
  6482   001A9E  EF53  F00D         	goto	i2u538_40
  6483   001AA2                     i2u538_41:
  6484   001AA2  EF60  F00D         	goto	i2l1022
  6485   001AA6                     i2u538_40:
  6486   001AA6  5069               	movf	_RB7_Flag^0,w,c	;volatile
  6487   001AA8  A4D8               	btfss	status,2,c
  6488   001AAA  EF59  F00D         	goto	i2u539_41
  6489   001AAE  EF5B  F00D         	goto	i2u539_40
  6490   001AB2                     i2u539_41:
  6491   001AB2  EF60  F00D         	goto	i2l1022
  6492   001AB6                     i2u539_40:
  6493   001AB6                     
  6494                           ;interupt/mcal_interupt_manage.c: 91:        (PORTBbits.RB7 == LOW) && (RB7_Flag == 0)){
      +                          ;interupt/mcal_interupt_manage.c: 92:         RB7_Flag = 1;
  6495   001AB6  0E01               	movlw	1
  6496   001AB8  6E69               	movwf	_RB7_Flag^0,c	;volatile
  6497   001ABA                     
  6498                           ;interupt/mcal_interupt_manage.c: 93:         RB7_ISR(1);
  6499   001ABA  0E01               	movlw	1
  6500   001ABC  ECDB  F017         	call	_RB7_ISR
  6501   001AC0                     i2l1022:
  6502                           
  6503                           ;interupt/mcal_interupt_manage.c: 101:       if((1 == PIE1bits.ADIE) && (1 == PIR1bits.A
      +                          DIF)){
  6504   001AC0  AC9D               	btfss	157,6,c	;volatile
  6505   001AC2  EF65  F00D         	goto	i2u540_41
  6506   001AC6  EF67  F00D         	goto	i2u540_40
  6507   001ACA                     i2u540_41:
  6508   001ACA  EF70  F00D         	goto	i2l1024
  6509   001ACE                     i2u540_40:
  6510   001ACE  AC9E               	btfss	158,6,c	;volatile
  6511   001AD0  EF6C  F00D         	goto	i2u541_41
  6512   001AD4  EF6E  F00D         	goto	i2u541_40
  6513   001AD8                     i2u541_41:
  6514   001AD8  EF70  F00D         	goto	i2l1024
  6515   001ADC                     i2u541_40:
  6516   001ADC                     
  6517                           ;interupt/mcal_interupt_manage.c: 102:       ADC_ISR();
  6518   001ADC  EC40  F018         	call	_ADC_ISR	;wreg free
  6519   001AE0                     i2l1024:
  6520                           
  6521                           ;interupt/mcal_interupt_manage.c: 107:      if((1 == INTCONbits.TMR0IE) && (1 == INTCONb
      +                          its.TMR0IF)){
  6522   001AE0  AAF2               	btfss	242,5,c	;volatile
  6523   001AE2  EF75  F00D         	goto	i2u542_41
  6524   001AE6  EF77  F00D         	goto	i2u542_40
  6525   001AEA                     i2u542_41:
  6526   001AEA  EF80  F00D         	goto	i2l1026
  6527   001AEE                     i2u542_40:
  6528   001AEE  A4F2               	btfss	242,2,c	;volatile
  6529   001AF0  EF7C  F00D         	goto	i2u543_41
  6530   001AF4  EF7E  F00D         	goto	i2u543_40
  6531   001AF8                     i2u543_41:
  6532   001AF8  EF80  F00D         	goto	i2l1026
  6533   001AFC                     i2u543_40:
  6534   001AFC                     
  6535                           ;interupt/mcal_interupt_manage.c: 108:         TMR0_ISR();
  6536   001AFC  EC26  F018         	call	_TMR0_ISR	;wreg free
  6537   001B00                     i2l1026:
  6538                           
  6539                           ;interupt/mcal_interupt_manage.c: 112:      if((1 == PIE1bits.TMR1IE) && (1 == PIR1bits.
      +                          TMR1IF)){
  6540   001B00  A09D               	btfss	157,0,c	;volatile
  6541   001B02  EF85  F00D         	goto	i2u544_41
  6542   001B06  EF87  F00D         	goto	i2u544_40
  6543   001B0A                     i2u544_41:
  6544   001B0A  EF90  F00D         	goto	i2l1028
  6545   001B0E                     i2u544_40:
  6546   001B0E  A09E               	btfss	158,0,c	;volatile
  6547   001B10  EF8C  F00D         	goto	i2u545_41
  6548   001B14  EF8E  F00D         	goto	i2u545_40
  6549   001B18                     i2u545_41:
  6550   001B18  EF90  F00D         	goto	i2l1028
  6551   001B1C                     i2u545_40:
  6552   001B1C                     
  6553                           ;interupt/mcal_interupt_manage.c: 113:         TMR1_ISR();
  6554   001B1C  EC20  F018         	call	_TMR1_ISR	;wreg free
  6555   001B20                     i2l1028:
  6556                           
  6557                           ;interupt/mcal_interupt_manage.c: 117:      if((1 == PIE1bits.TMR2IE) && (1 == PIR1bits.
      +                          TMR2IF)){
  6558   001B20  A29D               	btfss	157,1,c	;volatile
  6559   001B22  EF95  F00D         	goto	i2u546_41
  6560   001B26  EF97  F00D         	goto	i2u546_40
  6561   001B2A                     i2u546_41:
  6562   001B2A  EFA0  F00D         	goto	i2l1030
  6563   001B2E                     i2u546_40:
  6564   001B2E  A29E               	btfss	158,1,c	;volatile
  6565   001B30  EF9C  F00D         	goto	i2u547_41
  6566   001B34  EF9E  F00D         	goto	i2u547_40
  6567   001B38                     i2u547_41:
  6568   001B38  EFA0  F00D         	goto	i2l1030
  6569   001B3C                     i2u547_40:
  6570   001B3C                     
  6571                           ;interupt/mcal_interupt_manage.c: 118:         TMR2_ISR();
  6572   001B3C  EC2C  F018         	call	_TMR2_ISR	;wreg free
  6573   001B40                     i2l1030:
  6574                           
  6575                           ;interupt/mcal_interupt_manage.c: 122:     if((1 == PIE2bits.TMR3IE) && (1 == PIR2bits.T
      +                          MR3IF)){
  6576   001B40  A2A0               	btfss	160,1,c	;volatile
  6577   001B42  EFA5  F00D         	goto	i2u548_41
  6578   001B46  EFA7  F00D         	goto	i2u548_40
  6579   001B4A                     i2u548_41:
  6580   001B4A  EFB0  F00D         	goto	i2l1032
  6581   001B4E                     i2u548_40:
  6582   001B4E  A2A1               	btfss	161,1,c	;volatile
  6583   001B50  EFAC  F00D         	goto	i2u549_41
  6584   001B54  EFAE  F00D         	goto	i2u549_40
  6585   001B58                     i2u549_41:
  6586   001B58  EFB0  F00D         	goto	i2l1032
  6587   001B5C                     i2u549_40:
  6588   001B5C                     
  6589                           ;interupt/mcal_interupt_manage.c: 123:         TMR3_ISR();
  6590   001B5C  EC1A  F018         	call	_TMR3_ISR	;wreg free
  6591   001B60                     i2l1032:
  6592                           
  6593                           ;interupt/mcal_interupt_manage.c: 132:     if((1 == PIE1bits.CCP1IE) && (1 == PIR1bits.C
      +                          CP1IF)){
  6594   001B60  A49D               	btfss	157,2,c	;volatile
  6595   001B62  EFB5  F00D         	goto	i2u550_41
  6596   001B66  EFB7  F00D         	goto	i2u550_40
  6597   001B6A                     i2u550_41:
  6598   001B6A  EFC0  F00D         	goto	i2l1034
  6599   001B6E                     i2u550_40:
  6600   001B6E  A49E               	btfss	158,2,c	;volatile
  6601   001B70  EFBC  F00D         	goto	i2u551_41
  6602   001B74  EFBE  F00D         	goto	i2u551_40
  6603   001B78                     i2u551_41:
  6604   001B78  EFC0  F00D         	goto	i2l1034
  6605   001B7C                     i2u551_40:
  6606   001B7C                     
  6607                           ;interupt/mcal_interupt_manage.c: 133:         CCP1_ISR();
  6608   001B7C  EC3E  F018         	call	_CCP1_ISR	;wreg free
  6609   001B80                     i2l1034:
  6610                           
  6611                           ;interupt/mcal_interupt_manage.c: 136:     if((1 == PIE2bits.CCP2IE) && (1 == PIR2bits.C
      +                          CP2IF)){
  6612   001B80  A0A0               	btfss	160,0,c	;volatile
  6613   001B82  EFC5  F00D         	goto	i2u552_41
  6614   001B86  EFC7  F00D         	goto	i2u552_40
  6615   001B8A                     i2u552_41:
  6616   001B8A  EFD0  F00D         	goto	i2l1036
  6617   001B8E                     i2u552_40:
  6618   001B8E  A0A1               	btfss	161,0,c	;volatile
  6619   001B90  EFCC  F00D         	goto	i2u553_41
  6620   001B94  EFCE  F00D         	goto	i2u553_40
  6621   001B98                     i2u553_41:
  6622   001B98  EFD0  F00D         	goto	i2l1036
  6623   001B9C                     i2u553_40:
  6624   001B9C                     
  6625                           ;interupt/mcal_interupt_manage.c: 137:         CCP2_ISR();
  6626   001B9C  EC3C  F018         	call	_CCP2_ISR	;wreg free
  6627   001BA0                     i2l1036:
  6628                           
  6629                           ;interupt/mcal_interupt_manage.c: 144:      if((1 == PIE1bits.TXIE) && (1 == PIR1bits.TX
      +                          IF)){
  6630   001BA0  A89D               	btfss	157,4,c	;volatile
  6631   001BA2  EFD5  F00D         	goto	i2u554_41
  6632   001BA6  EFD7  F00D         	goto	i2u554_40
  6633   001BAA                     i2u554_41:
  6634   001BAA  EFE0  F00D         	goto	i2l1038
  6635   001BAE                     i2u554_40:
  6636   001BAE  A89E               	btfss	158,4,c	;volatile
  6637   001BB0  EFDC  F00D         	goto	i2u555_41
  6638   001BB4  EFDE  F00D         	goto	i2u555_40
  6639   001BB8                     i2u555_41:
  6640   001BB8  EFE0  F00D         	goto	i2l1038
  6641   001BBC                     i2u555_40:
  6642   001BBC                     
  6643                           ;interupt/mcal_interupt_manage.c: 145:         EUSART_TX_ISR();
  6644   001BBC  EC3A  F018         	call	_EUSART_TX_ISR	;wreg free
  6645   001BC0                     i2l1038:
  6646                           
  6647                           ;interupt/mcal_interupt_manage.c: 150:     if((1 == PIE1bits.RCIE) && (1 == PIR1bits.RCI
      +                          F)){
  6648   001BC0  AA9D               	btfss	157,5,c	;volatile
  6649   001BC2  EFE5  F00D         	goto	i2u556_41
  6650   001BC6  EFE7  F00D         	goto	i2u556_40
  6651   001BCA                     i2u556_41:
  6652   001BCA  EFF0  F00D         	goto	i2l1040
  6653   001BCE                     i2u556_40:
  6654   001BCE  AA9E               	btfss	158,5,c	;volatile
  6655   001BD0  EFEC  F00D         	goto	i2u557_41
  6656   001BD4  EFEE  F00D         	goto	i2u557_40
  6657   001BD8                     i2u557_41:
  6658   001BD8  EFF0  F00D         	goto	i2l1040
  6659   001BDC                     i2u557_40:
  6660   001BDC                     
  6661                           ;interupt/mcal_interupt_manage.c: 151:         EUSART_RX_ISR();
  6662   001BDC  EC42  F018         	call	_EUSART_RX_ISR	;wreg free
  6663   001BE0                     i2l1040:
  6664                           
  6665                           ;interupt/mcal_interupt_manage.c: 157:     if((1 == PIE1bits.SSPIE) && (1 == PIR1bits.SS
      +                          PIF)){
  6666   001BE0  A69D               	btfss	157,3,c	;volatile
  6667   001BE2  EFF5  F00D         	goto	i2u558_41
  6668   001BE6  EFF7  F00D         	goto	i2u558_40
  6669   001BEA                     i2u558_41:
  6670   001BEA  EF00  F00E         	goto	i2l1042
  6671   001BEE                     i2u558_40:
  6672   001BEE  A69E               	btfss	158,3,c	;volatile
  6673   001BF0  EFFC  F00D         	goto	i2u559_41
  6674   001BF4  EFFE  F00D         	goto	i2u559_40
  6675   001BF8                     i2u559_41:
  6676   001BF8  EF00  F00E         	goto	i2l1042
  6677   001BFC                     i2u559_40:
  6678   001BFC                     
  6679                           ;interupt/mcal_interupt_manage.c: 158:         MSSP_I2C_ISR();
  6680   001BFC  EC30  F018         	call	_MSSP_I2C_ISR	;wreg free
  6681   001C00                     i2l1042:
  6682                           
  6683                           ;interupt/mcal_interupt_manage.c: 161:     if((1 == PIE2bits.BCLIE) && (1 == PIR2bits.BC
      +                          LIF)){
  6684   001C00  A6A0               	btfss	160,3,c	;volatile
  6685   001C02  EF05  F00E         	goto	i2u560_41
  6686   001C06  EF07  F00E         	goto	i2u560_40
  6687   001C0A                     i2u560_41:
  6688   001C0A  EF10  F00E         	goto	i2l1045
  6689   001C0E                     i2u560_40:
  6690   001C0E  A6A1               	btfss	161,3,c	;volatile
  6691   001C10  EF0C  F00E         	goto	i2u561_41
  6692   001C14  EF0E  F00E         	goto	i2u561_40
  6693   001C18                     i2u561_41:
  6694   001C18  EF10  F00E         	goto	i2l1045
  6695   001C1C                     i2u561_40:
  6696   001C1C                     
  6697                           ;interupt/mcal_interupt_manage.c: 162:         MSSP_I2C_BC_ISR();
  6698   001C1C  EC32  F018         	call	_MSSP_I2C_BC_ISR	;wreg free
  6699   001C20                     i2l1045:
  6700   001C20  927A               	bcf	int$flags,1,c	;clear compiler interrupt flag (level 2)
  6701   001C22  0011               	retfie		f
  6702   001C24                     __end_of_InterruptManager:
  6703                           	callstack 0
  6704                           
  6705 ;; *************** function _TMR3_ISR *****************
  6706 ;; Defined at:
  6707 ;;		line 96 in file "mcal_layer/Timer3/hal_timr3.c"
  6708 ;; Parameters:    Size  Location     Type
  6709 ;;		None
  6710 ;; Auto vars:     Size  Location     Type
  6711 ;;		None
  6712 ;; Return value:  Size  Location     Type
  6713 ;;                  1    wreg      void 
  6714 ;; Registers used:
  6715 ;;		wreg, status,2
  6716 ;; Tracked objects:
  6717 ;;		On entry : 0/0
  6718 ;;		On exit  : 0/0
  6719 ;;		Unchanged: 0/0
  6720 ;; Data sizes:     COMRAM   BANK0   BANK1   BANK2   BANK3   BANK4   BANK5   BANK6   BANK7   BANK8   BANK9  BANK10  BANK1
      +1  BANK12  BANK13  BANK14  BANK15
  6721 ;;      Params:         0       0       0       0       0       0       0       0       0       0       0       0       
      +0       0       0       0       0
  6722 ;;      Locals:         0       0       0       0       0       0       0       0       0       0       0       0       
      +0       0       0       0       0
  6723 ;;      Temps:          0       0       0       0       0       0       0       0       0       0       0       0       
      +0       0       0       0       0
  6724 ;;      Totals:         0       0       0       0       0       0       0       0       0       0       0       0       
      +0       0       0       0       0
  6725 ;;Total ram usage:        0 bytes
  6726 ;; Hardware stack levels used: 1
  6727 ;; This function calls:
  6728 ;;		Nothing
  6729 ;; This function is called by:
  6730 ;;		_InterruptManager
  6731 ;; This function uses a non-reentrant model
  6732 ;;
  6733                           
  6734                           	psect	text32
  6735   003034                     __ptext32:
  6736                           	callstack 0
  6737   003034                     _TMR3_ISR:
  6738                           	callstack 24
  6739   003034                     
  6740                           ;mcal_layer/Timer3/hal_timr3.c: 97:     (PIR2bits.TMR3IF = 0);
  6741   003034  92A1               	bcf	161,1,c	;volatile
  6742   003036                     
  6743                           ;mcal_layer/Timer3/hal_timr3.c: 98:     TMR3H = (timer3_preload) >> 8;
  6744   003036  5004               	movf	(_timer3_preload+1)^0,w,c
  6745   003038  6EB3               	movwf	179,c	;volatile
  6746   00303A                     
  6747                           ;mcal_layer/Timer3/hal_timr3.c: 99:     TMR3L = (uint8)(timer3_preload);
  6748   00303A  C003  FFB2         	movff	_timer3_preload,4018	;volatile
  6749   00303E  0012               	return		;funcret
  6750   003040                     __end_of_TMR3_ISR:
  6751                           	callstack 0
  6752                           
  6753 ;; *************** function _TMR2_ISR *****************
  6754 ;; Defined at:
  6755 ;;		line 91 in file "mcal_layer/Timer2/hal_timr2.c"
  6756 ;; Parameters:    Size  Location     Type
  6757 ;;		None
  6758 ;; Auto vars:     Size  Location     Type
  6759 ;;		None
  6760 ;; Return value:  Size  Location     Type
  6761 ;;                  1    wreg      void 
  6762 ;; Registers used:
  6763 ;;		None
  6764 ;; Tracked objects:
  6765 ;;		On entry : 0/0
  6766 ;;		On exit  : 0/0
  6767 ;;		Unchanged: 0/0
  6768 ;; Data sizes:     COMRAM   BANK0   BANK1   BANK2   BANK3   BANK4   BANK5   BANK6   BANK7   BANK8   BANK9  BANK10  BANK1
      +1  BANK12  BANK13  BANK14  BANK15
  6769 ;;      Params:         0       0       0       0       0       0       0       0       0       0       0       0       
      +0       0       0       0       0
  6770 ;;      Locals:         0       0       0       0       0       0       0       0       0       0       0       0       
      +0       0       0       0       0
  6771 ;;      Temps:          0       0       0       0       0       0       0       0       0       0       0       0       
      +0       0       0       0       0
  6772 ;;      Totals:         0       0       0       0       0       0       0       0       0       0       0       0       
      +0       0       0       0       0
  6773 ;;Total ram usage:        0 bytes
  6774 ;; Hardware stack levels used: 1
  6775 ;; This function calls:
  6776 ;;		Nothing
  6777 ;; This function is called by:
  6778 ;;		_InterruptManager
  6779 ;; This function uses a non-reentrant model
  6780 ;;
  6781                           
  6782                           	psect	text33
  6783   003058                     __ptext33:
  6784                           	callstack 0
  6785   003058                     _TMR2_ISR:
  6786                           	callstack 24
  6787   003058                     
  6788                           ;mcal_layer/Timer2/hal_timr2.c: 92:     (PIR1bits.TMR2IF = 0);
  6789   003058  929E               	bcf	158,1,c	;volatile
  6790                           
  6791                           ;mcal_layer/Timer2/hal_timr2.c: 93:     TMR2 = timer2_preload;
  6792   00305A  C026  FFCC         	movff	_timer2_preload,4044	;volatile
  6793   00305E  0012               	return		;funcret
  6794   003060                     __end_of_TMR2_ISR:
  6795                           	callstack 0
  6796                           
  6797 ;; *************** function _TMR1_ISR *****************
  6798 ;; Defined at:
  6799 ;;		line 96 in file "mcal_layer/Timer1/hal_timer1.c"
  6800 ;; Parameters:    Size  Location     Type
  6801 ;;		None
  6802 ;; Auto vars:     Size  Location     Type
  6803 ;;		None
  6804 ;; Return value:  Size  Location     Type
  6805 ;;                  1    wreg      void 
  6806 ;; Registers used:
  6807 ;;		wreg, status,2
  6808 ;; Tracked objects:
  6809 ;;		On entry : 0/0
  6810 ;;		On exit  : 0/0
  6811 ;;		Unchanged: 0/0
  6812 ;; Data sizes:     COMRAM   BANK0   BANK1   BANK2   BANK3   BANK4   BANK5   BANK6   BANK7   BANK8   BANK9  BANK10  BANK1
      +1  BANK12  BANK13  BANK14  BANK15
  6813 ;;      Params:         0       0       0       0       0       0       0       0       0       0       0       0       
      +0       0       0       0       0
  6814 ;;      Locals:         0       0       0       0       0       0       0       0       0       0       0       0       
      +0       0       0       0       0
  6815 ;;      Temps:          0       0       0       0       0       0       0       0       0       0       0       0       
      +0       0       0       0       0
  6816 ;;      Totals:         0       0       0       0       0       0       0       0       0       0       0       0       
      +0       0       0       0       0
  6817 ;;Total ram usage:        0 bytes
  6818 ;; Hardware stack levels used: 1
  6819 ;; This function calls:
  6820 ;;		Nothing
  6821 ;; This function is called by:
  6822 ;;		_InterruptManager
  6823 ;; This function uses a non-reentrant model
  6824 ;;
  6825                           
  6826                           	psect	text34
  6827   003040                     __ptext34:
  6828                           	callstack 0
  6829   003040                     _TMR1_ISR:
  6830                           	callstack 24
  6831   003040                     
  6832                           ;mcal_layer/Timer1/hal_timer1.c: 97:     (PIR1bits.TMR1IF = 0);
  6833   003040  909E               	bcf	158,0,c	;volatile
  6834   003042                     
  6835                           ;mcal_layer/Timer1/hal_timer1.c: 98:     TMR1H = (timer1_preload) >> 8;
  6836   003042  5006               	movf	(_timer1_preload+1)^0,w,c	;volatile
  6837   003044  6ECF               	movwf	207,c	;volatile
  6838   003046                     
  6839                           ;mcal_layer/Timer1/hal_timer1.c: 99:     TMR1L = (uint8)(timer1_preload);
  6840   003046  C005  FFCE         	movff	_timer1_preload,4046	;volatile
  6841   00304A  0012               	return		;funcret
  6842   00304C                     __end_of_TMR1_ISR:
  6843                           	callstack 0
  6844                           
  6845 ;; *************** function _TMR0_ISR *****************
  6846 ;; Defined at:
  6847 ;;		line 101 in file "mcal_layer/Timer0/hal_timr0.c"
  6848 ;; Parameters:    Size  Location     Type
  6849 ;;		None
  6850 ;; Auto vars:     Size  Location     Type
  6851 ;;		None
  6852 ;; Return value:  Size  Location     Type
  6853 ;;                  1    wreg      void 
  6854 ;; Registers used:
  6855 ;;		wreg, status,2
  6856 ;; Tracked objects:
  6857 ;;		On entry : 0/0
  6858 ;;		On exit  : 0/0
  6859 ;;		Unchanged: 0/0
  6860 ;; Data sizes:     COMRAM   BANK0   BANK1   BANK2   BANK3   BANK4   BANK5   BANK6   BANK7   BANK8   BANK9  BANK10  BANK1
      +1  BANK12  BANK13  BANK14  BANK15
  6861 ;;      Params:         0       0       0       0       0       0       0       0       0       0       0       0       
      +0       0       0       0       0
  6862 ;;      Locals:         0       0       0       0       0       0       0       0       0       0       0       0       
      +0       0       0       0       0
  6863 ;;      Temps:          0       0       0       0       0       0       0       0       0       0       0       0       
      +0       0       0       0       0
  6864 ;;      Totals:         0       0       0       0       0       0       0       0       0       0       0       0       
      +0       0       0       0       0
  6865 ;;Total ram usage:        0 bytes
  6866 ;; Hardware stack levels used: 1
  6867 ;; This function calls:
  6868 ;;		Nothing
  6869 ;; This function is called by:
  6870 ;;		_InterruptManager
  6871 ;; This function uses a non-reentrant model
  6872 ;;
  6873                           
  6874                           	psect	text35
  6875   00304C                     __ptext35:
  6876                           	callstack 0
  6877   00304C                     _TMR0_ISR:
  6878                           	callstack 24
  6879   00304C                     
  6880                           ;mcal_layer/Timer0/hal_timr0.c: 102:     (INTCONbits.TMR0IF = 0);
  6881   00304C  94F2               	bcf	242,2,c	;volatile
  6882   00304E                     
  6883                           ;mcal_layer/Timer0/hal_timr0.c: 103:     TMR0H = (timer0_preload) >> 8;
  6884   00304E  5008               	movf	(_timer0_preload+1)^0,w,c
  6885   003050  6ED7               	movwf	215,c	;volatile
  6886   003052                     
  6887                           ;mcal_layer/Timer0/hal_timr0.c: 104:     TMR0L = (uint8)(timer0_preload);
  6888   003052  C007  FFD6         	movff	_timer0_preload,4054	;volatile
  6889   003056  0012               	return		;funcret
  6890   003058                     __end_of_TMR0_ISR:
  6891                           	callstack 0
  6892                           
  6893 ;; *************** function _RB7_ISR *****************
  6894 ;; Defined at:
  6895 ;;		line 174 in file "interupt/mcal_external_interupt.c"
  6896 ;; Parameters:    Size  Location     Type
  6897 ;;  RB7_Source      1    wreg     unsigned char 
  6898 ;; Auto vars:     Size  Location     Type
  6899 ;;  RB7_Source      1    0[COMRAM] unsigned char 
  6900 ;; Return value:  Size  Location     Type
  6901 ;;                  1    wreg      void 
  6902 ;; Registers used:
  6903 ;;		wreg, status,2, status,0
  6904 ;; Tracked objects:
  6905 ;;		On entry : 0/0
  6906 ;;		On exit  : 0/0
  6907 ;;		Unchanged: 0/0
  6908 ;; Data sizes:     COMRAM   BANK0   BANK1   BANK2   BANK3   BANK4   BANK5   BANK6   BANK7   BANK8   BANK9  BANK10  BANK1
      +1  BANK12  BANK13  BANK14  BANK15
  6909 ;;      Params:         0       0       0       0       0       0       0       0       0       0       0       0       
      +0       0       0       0       0
  6910 ;;      Locals:         1       0       0       0       0       0       0       0       0       0       0       0       
      +0       0       0       0       0
  6911 ;;      Temps:          0       0       0       0       0       0       0       0       0       0       0       0       
      +0       0       0       0       0
  6912 ;;      Totals:         1       0       0       0       0       0       0       0       0       0       0       0       
      +0       0       0       0       0
  6913 ;;Total ram usage:        1 bytes
  6914 ;; Hardware stack levels used: 1
  6915 ;; This function calls:
  6916 ;;		Nothing
  6917 ;; This function is called by:
  6918 ;;		_InterruptManager
  6919 ;; This function uses a non-reentrant model
  6920 ;;
  6921                           
  6922                           	psect	text36
  6923   002FB6                     __ptext36:
  6924                           	callstack 0
  6925   002FB6                     _RB7_ISR:
  6926                           	callstack 24
  6927                           
  6928                           ;incstack = 0
  6929                           ;RB7_ISR@RB7_Source stored from wreg
  6930   002FB6  6E40               	movwf	RB7_ISR@RB7_Source^0,c
  6931   002FB8                     
  6932                           ;interupt/mcal_external_interupt.c: 176:     (INTCONbits.RBIF = 0);
  6933   002FB8  90F2               	bcf	242,0,c	;volatile
  6934   002FBA                     
  6935                           ;interupt/mcal_external_interupt.c: 179:     if(0 == RB7_Source){
  6936   002FBA  5040               	movf	RB7_ISR@RB7_Source^0,w,c
  6937   002FBC  A4D8               	btfss	status,2,c
  6938   002FBE  EFE3  F017         	goto	i2u417_41
  6939   002FC2  EFE5  F017         	goto	i2u417_40
  6940   002FC6                     i2u417_41:
  6941   002FC6  EFE7  F017         	goto	i2l6015
  6942   002FCA                     i2u417_40:
  6943   002FCA  EFE7  F017         	goto	i2l1151
  6944   002FCE                     i2l6015:
  6945   002FCE                     i2l1151:
  6946   002FCE  0012               	return		;funcret
  6947   002FD0                     __end_of_RB7_ISR:
  6948                           	callstack 0
  6949                           
  6950 ;; *************** function _RB6_ISR *****************
  6951 ;; Defined at:
  6952 ;;		line 155 in file "interupt/mcal_external_interupt.c"
  6953 ;; Parameters:    Size  Location     Type
  6954 ;;  RB6_Source      1    wreg     unsigned char 
  6955 ;; Auto vars:     Size  Location     Type
  6956 ;;  RB6_Source      1    0[COMRAM] unsigned char 
  6957 ;; Return value:  Size  Location     Type
  6958 ;;                  1    wreg      void 
  6959 ;; Registers used:
  6960 ;;		wreg, status,2, status,0
  6961 ;; Tracked objects:
  6962 ;;		On entry : 0/0
  6963 ;;		On exit  : 0/0
  6964 ;;		Unchanged: 0/0
  6965 ;; Data sizes:     COMRAM   BANK0   BANK1   BANK2   BANK3   BANK4   BANK5   BANK6   BANK7   BANK8   BANK9  BANK10  BANK1
      +1  BANK12  BANK13  BANK14  BANK15
  6966 ;;      Params:         0       0       0       0       0       0       0       0       0       0       0       0       
      +0       0       0       0       0
  6967 ;;      Locals:         1       0       0       0       0       0       0       0       0       0       0       0       
      +0       0       0       0       0
  6968 ;;      Temps:          0       0       0       0       0       0       0       0       0       0       0       0       
      +0       0       0       0       0
  6969 ;;      Totals:         1       0       0       0       0       0       0       0       0       0       0       0       
      +0       0       0       0       0
  6970 ;;Total ram usage:        1 bytes
  6971 ;; Hardware stack levels used: 1
  6972 ;; This function calls:
  6973 ;;		Nothing
  6974 ;; This function is called by:
  6975 ;;		_InterruptManager
  6976 ;; This function uses a non-reentrant model
  6977 ;;
  6978                           
  6979                           	psect	text37
  6980   002FD0                     __ptext37:
  6981                           	callstack 0
  6982   002FD0                     _RB6_ISR:
  6983                           	callstack 24
  6984                           
  6985                           ;incstack = 0
  6986                           ;RB6_ISR@RB6_Source stored from wreg
  6987   002FD0  6E40               	movwf	RB6_ISR@RB6_Source^0,c
  6988   002FD2                     
  6989                           ;interupt/mcal_external_interupt.c: 157:     (INTCONbits.RBIF = 0);
  6990   002FD2  90F2               	bcf	242,0,c	;volatile
  6991   002FD4                     
  6992                           ;interupt/mcal_external_interupt.c: 160:     if(0 == RB6_Source){
  6993   002FD4  5040               	movf	RB6_ISR@RB6_Source^0,w,c
  6994   002FD6  A4D8               	btfss	status,2,c
  6995   002FD8  EFF0  F017         	goto	i2u416_41
  6996   002FDC  EFF2  F017         	goto	i2u416_40
  6997   002FE0                     i2u416_41:
  6998   002FE0  EFF4  F017         	goto	i2l6001
  6999   002FE4                     i2u416_40:
  7000   002FE4  EFF4  F017         	goto	i2l1140
  7001   002FE8                     i2l6001:
  7002   002FE8                     i2l1140:
  7003   002FE8  0012               	return		;funcret
  7004   002FEA                     __end_of_RB6_ISR:
  7005                           	callstack 0
  7006                           
  7007 ;; *************** function _RB5_ISR *****************
  7008 ;; Defined at:
  7009 ;;		line 136 in file "interupt/mcal_external_interupt.c"
  7010 ;; Parameters:    Size  Location     Type
  7011 ;;  RB5_Source      1    wreg     unsigned char 
  7012 ;; Auto vars:     Size  Location     Type
  7013 ;;  RB5_Source      1    0[COMRAM] unsigned char 
  7014 ;; Return value:  Size  Location     Type
  7015 ;;                  1    wreg      void 
  7016 ;; Registers used:
  7017 ;;		wreg, status,2, status,0
  7018 ;; Tracked objects:
  7019 ;;		On entry : 0/0
  7020 ;;		On exit  : 0/0
  7021 ;;		Unchanged: 0/0
  7022 ;; Data sizes:     COMRAM   BANK0   BANK1   BANK2   BANK3   BANK4   BANK5   BANK6   BANK7   BANK8   BANK9  BANK10  BANK1
      +1  BANK12  BANK13  BANK14  BANK15
  7023 ;;      Params:         0       0       0       0       0       0       0       0       0       0       0       0       
      +0       0       0       0       0
  7024 ;;      Locals:         1       0       0       0       0       0       0       0       0       0       0       0       
      +0       0       0       0       0
  7025 ;;      Temps:          0       0       0       0       0       0       0       0       0       0       0       0       
      +0       0       0       0       0
  7026 ;;      Totals:         1       0       0       0       0       0       0       0       0       0       0       0       
      +0       0       0       0       0
  7027 ;;Total ram usage:        1 bytes
  7028 ;; Hardware stack levels used: 1
  7029 ;; This function calls:
  7030 ;;		Nothing
  7031 ;; This function is called by:
  7032 ;;		_InterruptManager
  7033 ;; This function uses a non-reentrant model
  7034 ;;
  7035                           
  7036                           	psect	text38
  7037   002FEA                     __ptext38:
  7038                           	callstack 0
  7039   002FEA                     _RB5_ISR:
  7040                           	callstack 24
  7041                           
  7042                           ;incstack = 0
  7043                           ;RB5_ISR@RB5_Source stored from wreg
  7044   002FEA  6E40               	movwf	RB5_ISR@RB5_Source^0,c
  7045   002FEC                     
  7046                           ;interupt/mcal_external_interupt.c: 138:     (INTCONbits.RBIF = 0);
  7047   002FEC  90F2               	bcf	242,0,c	;volatile
  7048   002FEE                     
  7049                           ;interupt/mcal_external_interupt.c: 141:     if(0 == RB5_Source){
  7050   002FEE  5040               	movf	RB5_ISR@RB5_Source^0,w,c
  7051   002FF0  A4D8               	btfss	status,2,c
  7052   002FF2  EFFD  F017         	goto	i2u85_41
  7053   002FF6  EFFF  F017         	goto	i2u85_40
  7054   002FFA                     i2u85_41:
  7055   002FFA  EF01  F018         	goto	i2l3187
  7056   002FFE                     i2u85_40:
  7057   002FFE  EF01  F018         	goto	i2l1129
  7058   003002                     i2l3187:
  7059   003002                     i2l1129:
  7060   003002  0012               	return		;funcret
  7061   003004                     __end_of_RB5_ISR:
  7062                           	callstack 0
  7063                           
  7064 ;; *************** function _RB4_ISR *****************
  7065 ;; Defined at:
  7066 ;;		line 117 in file "interupt/mcal_external_interupt.c"
  7067 ;; Parameters:    Size  Location     Type
  7068 ;;  RB4_Source      1    wreg     unsigned char 
  7069 ;; Auto vars:     Size  Location     Type
  7070 ;;  RB4_Source      1    0[COMRAM] unsigned char 
  7071 ;; Return value:  Size  Location     Type
  7072 ;;                  1    wreg      void 
  7073 ;; Registers used:
  7074 ;;		wreg, status,2, status,0
  7075 ;; Tracked objects:
  7076 ;;		On entry : 0/0
  7077 ;;		On exit  : 0/0
  7078 ;;		Unchanged: 0/0
  7079 ;; Data sizes:     COMRAM   BANK0   BANK1   BANK2   BANK3   BANK4   BANK5   BANK6   BANK7   BANK8   BANK9  BANK10  BANK1
      +1  BANK12  BANK13  BANK14  BANK15
  7080 ;;      Params:         0       0       0       0       0       0       0       0       0       0       0       0       
      +0       0       0       0       0
  7081 ;;      Locals:         1       0       0       0       0       0       0       0       0       0       0       0       
      +0       0       0       0       0
  7082 ;;      Temps:          0       0       0       0       0       0       0       0       0       0       0       0       
      +0       0       0       0       0
  7083 ;;      Totals:         1       0       0       0       0       0       0       0       0       0       0       0       
      +0       0       0       0       0
  7084 ;;Total ram usage:        1 bytes
  7085 ;; Hardware stack levels used: 1
  7086 ;; This function calls:
  7087 ;;		Nothing
  7088 ;; This function is called by:
  7089 ;;		_InterruptManager
  7090 ;; This function uses a non-reentrant model
  7091 ;;
  7092                           
  7093                           	psect	text39
  7094   003004                     __ptext39:
  7095                           	callstack 0
  7096   003004                     _RB4_ISR:
  7097                           	callstack 24
  7098                           
  7099                           ;incstack = 0
  7100                           ;RB4_ISR@RB4_Source stored from wreg
  7101   003004  6E40               	movwf	RB4_ISR@RB4_Source^0,c
  7102   003006                     
  7103                           ;interupt/mcal_external_interupt.c: 119:     (INTCONbits.RBIF = 0);
  7104   003006  90F2               	bcf	242,0,c	;volatile
  7105   003008                     
  7106                           ;interupt/mcal_external_interupt.c: 122:     if(0 == RB4_Source){
  7107   003008  5040               	movf	RB4_ISR@RB4_Source^0,w,c
  7108   00300A  A4D8               	btfss	status,2,c
  7109   00300C  EF0A  F018         	goto	i2u84_41
  7110   003010  EF0C  F018         	goto	i2u84_40
  7111   003014                     i2u84_41:
  7112   003014  EF0E  F018         	goto	i2l3173
  7113   003018                     i2u84_40:
  7114   003018  EF0E  F018         	goto	i2l1118
  7115   00301C                     i2l3173:
  7116   00301C                     i2l1118:
  7117   00301C  0012               	return		;funcret
  7118   00301E                     __end_of_RB4_ISR:
  7119                           	callstack 0
  7120                           
  7121 ;; *************** function _MSSP_I2C_ISR *****************
  7122 ;; Defined at:
  7123 ;;		line 225 in file "mcal_layer/I2c/hal_i2c.c"
  7124 ;; Parameters:    Size  Location     Type
  7125 ;;		None
  7126 ;; Auto vars:     Size  Location     Type
  7127 ;;		None
  7128 ;; Return value:  Size  Location     Type
  7129 ;;                  1    wreg      void 
  7130 ;; Registers used:
  7131 ;;		None
  7132 ;; Tracked objects:
  7133 ;;		On entry : 0/0
  7134 ;;		On exit  : 0/0
  7135 ;;		Unchanged: 0/0
  7136 ;; Data sizes:     COMRAM   BANK0   BANK1   BANK2   BANK3   BANK4   BANK5   BANK6   BANK7   BANK8   BANK9  BANK10  BANK1
      +1  BANK12  BANK13  BANK14  BANK15
  7137 ;;      Params:         0       0       0       0       0       0       0       0       0       0       0       0       
      +0       0       0       0       0
  7138 ;;      Locals:         0       0       0       0       0       0       0       0       0       0       0       0       
      +0       0       0       0       0
  7139 ;;      Temps:          0       0       0       0       0       0       0       0       0       0       0       0       
      +0       0       0       0       0
  7140 ;;      Totals:         0       0       0       0       0       0       0       0       0       0       0       0       
      +0       0       0       0       0
  7141 ;;Total ram usage:        0 bytes
  7142 ;; Hardware stack levels used: 1
  7143 ;; This function calls:
  7144 ;;		Nothing
  7145 ;; This function is called by:
  7146 ;;		_InterruptManager
  7147 ;; This function uses a non-reentrant model
  7148 ;;
  7149                           
  7150                           	psect	text40
  7151   003060                     __ptext40:
  7152                           	callstack 0
  7153   003060                     _MSSP_I2C_ISR:
  7154                           	callstack 24
  7155   003060                     
  7156                           ;mcal_layer/I2c/hal_i2c.c: 227:     (PIR1bits.SSPIF = 0);
  7157   003060  969E               	bcf	158,3,c	;volatile
  7158   003062  0012               	return		;funcret
  7159   003064                     __end_of_MSSP_I2C_ISR:
  7160                           	callstack 0
  7161                           
  7162 ;; *************** function _MSSP_I2C_BC_ISR *****************
  7163 ;; Defined at:
  7164 ;;		line 234 in file "mcal_layer/I2c/hal_i2c.c"
  7165 ;; Parameters:    Size  Location     Type
  7166 ;;		None
  7167 ;; Auto vars:     Size  Location     Type
  7168 ;;		None
  7169 ;; Return value:  Size  Location     Type
  7170 ;;                  1    wreg      void 
  7171 ;; Registers used:
  7172 ;;		None
  7173 ;; Tracked objects:
  7174 ;;		On entry : 0/0
  7175 ;;		On exit  : 0/0
  7176 ;;		Unchanged: 0/0
  7177 ;; Data sizes:     COMRAM   BANK0   BANK1   BANK2   BANK3   BANK4   BANK5   BANK6   BANK7   BANK8   BANK9  BANK10  BANK1
      +1  BANK12  BANK13  BANK14  BANK15
  7178 ;;      Params:         0       0       0       0       0       0       0       0       0       0       0       0       
      +0       0       0       0       0
  7179 ;;      Locals:         0       0       0       0       0       0       0       0       0       0       0       0       
      +0       0       0       0       0
  7180 ;;      Temps:          0       0       0       0       0       0       0       0       0       0       0       0       
      +0       0       0       0       0
  7181 ;;      Totals:         0       0       0       0       0       0       0       0       0       0       0       0       
      +0       0       0       0       0
  7182 ;;Total ram usage:        0 bytes
  7183 ;; Hardware stack levels used: 1
  7184 ;; This function calls:
  7185 ;;		Nothing
  7186 ;; This function is called by:
  7187 ;;		_InterruptManager
  7188 ;; This function uses a non-reentrant model
  7189 ;;
  7190                           
  7191                           	psect	text41
  7192   003064                     __ptext41:
  7193                           	callstack 0
  7194   003064                     _MSSP_I2C_BC_ISR:
  7195                           	callstack 24
  7196   003064                     
  7197                           ;mcal_layer/I2c/hal_i2c.c: 236:     (PIR2bits.BCLIF = 0);
  7198   003064  96A1               	bcf	161,3,c	;volatile
  7199   003066  0012               	return		;funcret
  7200   003068                     __end_of_MSSP_I2C_BC_ISR:
  7201                           	callstack 0
  7202                           
  7203 ;; *************** function _INT2_ISR *****************
  7204 ;; Defined at:
  7205 ;;		line 105 in file "interupt/mcal_external_interupt.c"
  7206 ;; Parameters:    Size  Location     Type
  7207 ;;		None
  7208 ;; Auto vars:     Size  Location     Type
  7209 ;;		None
  7210 ;; Return value:  Size  Location     Type
  7211 ;;                  1    wreg      void 
  7212 ;; Registers used:
  7213 ;;		None
  7214 ;; Tracked objects:
  7215 ;;		On entry : 0/0
  7216 ;;		On exit  : 0/0
  7217 ;;		Unchanged: 0/0
  7218 ;; Data sizes:     COMRAM   BANK0   BANK1   BANK2   BANK3   BANK4   BANK5   BANK6   BANK7   BANK8   BANK9  BANK10  BANK1
      +1  BANK12  BANK13  BANK14  BANK15
  7219 ;;      Params:         0       0       0       0       0       0       0       0       0       0       0       0       
      +0       0       0       0       0
  7220 ;;      Locals:         0       0       0       0       0       0       0       0       0       0       0       0       
      +0       0       0       0       0
  7221 ;;      Temps:          0       0       0       0       0       0       0       0       0       0       0       0       
      +0       0       0       0       0
  7222 ;;      Totals:         0       0       0       0       0       0       0       0       0       0       0       0       
      +0       0       0       0       0
  7223 ;;Total ram usage:        0 bytes
  7224 ;; Hardware stack levels used: 1
  7225 ;; This function calls:
  7226 ;;		Nothing
  7227 ;; This function is called by:
  7228 ;;		_InterruptManager
  7229 ;; This function uses a non-reentrant model
  7230 ;;
  7231                           
  7232                           	psect	text42
  7233   003068                     __ptext42:
  7234                           	callstack 0
  7235   003068                     _INT2_ISR:
  7236                           	callstack 24
  7237   003068                     
  7238                           ;interupt/mcal_external_interupt.c: 107:     (INTCON3bits.INT2IF = 0);
  7239   003068  92F0               	bcf	240,1,c	;volatile
  7240   00306A  0012               	return		;funcret
  7241   00306C                     __end_of_INT2_ISR:
  7242                           	callstack 0
  7243                           
  7244 ;; *************** function _INT1_ISR *****************
  7245 ;; Defined at:
  7246 ;;		line 96 in file "interupt/mcal_external_interupt.c"
  7247 ;; Parameters:    Size  Location     Type
  7248 ;;		None
  7249 ;; Auto vars:     Size  Location     Type
  7250 ;;		None
  7251 ;; Return value:  Size  Location     Type
  7252 ;;                  1    wreg      void 
  7253 ;; Registers used:
  7254 ;;		None
  7255 ;; Tracked objects:
  7256 ;;		On entry : 0/0
  7257 ;;		On exit  : 0/0
  7258 ;;		Unchanged: 0/0
  7259 ;; Data sizes:     COMRAM   BANK0   BANK1   BANK2   BANK3   BANK4   BANK5   BANK6   BANK7   BANK8   BANK9  BANK10  BANK1
      +1  BANK12  BANK13  BANK14  BANK15
  7260 ;;      Params:         0       0       0       0       0       0       0       0       0       0       0       0       
      +0       0       0       0       0
  7261 ;;      Locals:         0       0       0       0       0       0       0       0       0       0       0       0       
      +0       0       0       0       0
  7262 ;;      Temps:          0       0       0       0       0       0       0       0       0       0       0       0       
      +0       0       0       0       0
  7263 ;;      Totals:         0       0       0       0       0       0       0       0       0       0       0       0       
      +0       0       0       0       0
  7264 ;;Total ram usage:        0 bytes
  7265 ;; Hardware stack levels used: 1
  7266 ;; This function calls:
  7267 ;;		Nothing
  7268 ;; This function is called by:
  7269 ;;		_InterruptManager
  7270 ;; This function uses a non-reentrant model
  7271 ;;
  7272                           
  7273                           	psect	text43
  7274   00306C                     __ptext43:
  7275                           	callstack 0
  7276   00306C                     _INT1_ISR:
  7277                           	callstack 24
  7278   00306C                     
  7279                           ;interupt/mcal_external_interupt.c: 98:     (INTCON3bits.INT1IF = 0);
  7280   00306C  90F0               	bcf	240,0,c	;volatile
  7281   00306E  0012               	return		;funcret
  7282   003070                     __end_of_INT1_ISR:
  7283                           	callstack 0
  7284                           
  7285 ;; *************** function _INT0_ISR *****************
  7286 ;; Defined at:
  7287 ;;		line 84 in file "interupt/mcal_external_interupt.c"
  7288 ;; Parameters:    Size  Location     Type
  7289 ;;		None
  7290 ;; Auto vars:     Size  Location     Type
  7291 ;;		None
  7292 ;; Return value:  Size  Location     Type
  7293 ;;                  1    wreg      void 
  7294 ;; Registers used:
  7295 ;;		None
  7296 ;; Tracked objects:
  7297 ;;		On entry : 0/0
  7298 ;;		On exit  : 0/0
  7299 ;;		Unchanged: 0/0
  7300 ;; Data sizes:     COMRAM   BANK0   BANK1   BANK2   BANK3   BANK4   BANK5   BANK6   BANK7   BANK8   BANK9  BANK10  BANK1
      +1  BANK12  BANK13  BANK14  BANK15
  7301 ;;      Params:         0       0       0       0       0       0       0       0       0       0       0       0       
      +0       0       0       0       0
  7302 ;;      Locals:         0       0       0       0       0       0       0       0       0       0       0       0       
      +0       0       0       0       0
  7303 ;;      Temps:          0       0       0       0       0       0       0       0       0       0       0       0       
      +0       0       0       0       0
  7304 ;;      Totals:         0       0       0       0       0       0       0       0       0       0       0       0       
      +0       0       0       0       0
  7305 ;;Total ram usage:        0 bytes
  7306 ;; Hardware stack levels used: 1
  7307 ;; This function calls:
  7308 ;;		Nothing
  7309 ;; This function is called by:
  7310 ;;		_InterruptManager
  7311 ;; This function uses a non-reentrant model
  7312 ;;
  7313                           
  7314                           	psect	text44
  7315   003070                     __ptext44:
  7316                           	callstack 0
  7317   003070                     _INT0_ISR:
  7318                           	callstack 24
  7319   003070                     
  7320                           ;interupt/mcal_external_interupt.c: 86:     (INTCONbits.INT0IF = 0);
  7321   003070  92F2               	bcf	242,1,c	;volatile
  7322   003072  0012               	return		;funcret
  7323   003074                     __end_of_INT0_ISR:
  7324                           	callstack 0
  7325                           
  7326 ;; *************** function _EUSART_TX_ISR *****************
  7327 ;; Defined at:
  7328 ;;		line 238 in file "mcal_layer/usart/hal_usart.c"
  7329 ;; Parameters:    Size  Location     Type
  7330 ;;		None
  7331 ;; Auto vars:     Size  Location     Type
  7332 ;;		None
  7333 ;; Return value:  Size  Location     Type
  7334 ;;                  1    wreg      void 
  7335 ;; Registers used:
  7336 ;;		None
  7337 ;; Tracked objects:
  7338 ;;		On entry : 0/0
  7339 ;;		On exit  : 0/0
  7340 ;;		Unchanged: 0/0
  7341 ;; Data sizes:     COMRAM   BANK0   BANK1   BANK2   BANK3   BANK4   BANK5   BANK6   BANK7   BANK8   BANK9  BANK10  BANK1
      +1  BANK12  BANK13  BANK14  BANK15
  7342 ;;      Params:         0       0       0       0       0       0       0       0       0       0       0       0       
      +0       0       0       0       0
  7343 ;;      Locals:         0       0       0       0       0       0       0       0       0       0       0       0       
      +0       0       0       0       0
  7344 ;;      Temps:          0       0       0       0       0       0       0       0       0       0       0       0       
      +0       0       0       0       0
  7345 ;;      Totals:         0       0       0       0       0       0       0       0       0       0       0       0       
      +0       0       0       0       0
  7346 ;;Total ram usage:        0 bytes
  7347 ;; Hardware stack levels used: 1
  7348 ;; This function calls:
  7349 ;;		Nothing
  7350 ;; This function is called by:
  7351 ;;		_InterruptManager
  7352 ;; This function uses a non-reentrant model
  7353 ;;
  7354                           
  7355                           	psect	text45
  7356   003074                     __ptext45:
  7357                           	callstack 0
  7358   003074                     _EUSART_TX_ISR:
  7359                           	callstack 24
  7360   003074                     
  7361                           ;mcal_layer/usart/hal_usart.c: 239:     (PIE1bits.TXIE = 0);
  7362   003074  989D               	bcf	157,4,c	;volatile
  7363   003076  0012               	return		;funcret
  7364   003078                     __end_of_EUSART_TX_ISR:
  7365                           	callstack 0
  7366                           
  7367 ;; *************** function _EUSART_RX_ISR *****************
  7368 ;; Defined at:
  7369 ;;		line 245 in file "mcal_layer/usart/hal_usart.c"
  7370 ;; Parameters:    Size  Location     Type
  7371 ;;		None
  7372 ;; Auto vars:     Size  Location     Type
  7373 ;;		None
  7374 ;; Return value:  Size  Location     Type
  7375 ;;                  1    wreg      void 
  7376 ;; Registers used:
  7377 ;;		wreg, status,2, status,0
  7378 ;; Tracked objects:
  7379 ;;		On entry : 0/0
  7380 ;;		On exit  : 0/0
  7381 ;;		Unchanged: 0/0
  7382 ;; Data sizes:     COMRAM   BANK0   BANK1   BANK2   BANK3   BANK4   BANK5   BANK6   BANK7   BANK8   BANK9  BANK10  BANK1
      +1  BANK12  BANK13  BANK14  BANK15
  7383 ;;      Params:         0       0       0       0       0       0       0       0       0       0       0       0       
      +0       0       0       0       0
  7384 ;;      Locals:         0       0       0       0       0       0       0       0       0       0       0       0       
      +0       0       0       0       0
  7385 ;;      Temps:          0       0       0       0       0       0       0       0       0       0       0       0       
      +0       0       0       0       0
  7386 ;;      Totals:         0       0       0       0       0       0       0       0       0       0       0       0       
      +0       0       0       0       0
  7387 ;;Total ram usage:        0 bytes
  7388 ;; Hardware stack levels used: 1
  7389 ;; This function calls:
  7390 ;;		Nothing
  7391 ;; This function is called by:
  7392 ;;		_InterruptManager
  7393 ;; This function uses a non-reentrant model
  7394 ;;
  7395                           
  7396                           	psect	text46
  7397   003084                     __ptext46:
  7398                           	callstack 0
  7399   003084                     _EUSART_RX_ISR:
  7400                           	callstack 24
  7401   003084  0012               	return		;funcret
  7402   003086                     __end_of_EUSART_RX_ISR:
  7403                           	callstack 0
  7404                           
  7405 ;; *************** function _CCP2_ISR *****************
  7406 ;; Defined at:
  7407 ;;		line 253 in file "mcal_layer/CCP/hal_ccp.c"
  7408 ;; Parameters:    Size  Location     Type
  7409 ;;		None
  7410 ;; Auto vars:     Size  Location     Type
  7411 ;;		None
  7412 ;; Return value:  Size  Location     Type
  7413 ;;                  1    wreg      void 
  7414 ;; Registers used:
  7415 ;;		None
  7416 ;; Tracked objects:
  7417 ;;		On entry : 0/0
  7418 ;;		On exit  : 0/0
  7419 ;;		Unchanged: 0/0
  7420 ;; Data sizes:     COMRAM   BANK0   BANK1   BANK2   BANK3   BANK4   BANK5   BANK6   BANK7   BANK8   BANK9  BANK10  BANK1
      +1  BANK12  BANK13  BANK14  BANK15
  7421 ;;      Params:         0       0       0       0       0       0       0       0       0       0       0       0       
      +0       0       0       0       0
  7422 ;;      Locals:         0       0       0       0       0       0       0       0       0       0       0       0       
      +0       0       0       0       0
  7423 ;;      Temps:          0       0       0       0       0       0       0       0       0       0       0       0       
      +0       0       0       0       0
  7424 ;;      Totals:         0       0       0       0       0       0       0       0       0       0       0       0       
      +0       0       0       0       0
  7425 ;;Total ram usage:        0 bytes
  7426 ;; Hardware stack levels used: 1
  7427 ;; This function calls:
  7428 ;;		Nothing
  7429 ;; This function is called by:
  7430 ;;		_InterruptManager
  7431 ;; This function uses a non-reentrant model
  7432 ;;
  7433                           
  7434                           	psect	text47
  7435   003078                     __ptext47:
  7436                           	callstack 0
  7437   003078                     _CCP2_ISR:
  7438                           	callstack 24
  7439   003078                     
  7440                           ;mcal_layer/CCP/hal_ccp.c: 254:     (PIR2bits.CCP2IF = 0);
  7441   003078  90A1               	bcf	161,0,c	;volatile
  7442   00307A  0012               	return		;funcret
  7443   00307C                     __end_of_CCP2_ISR:
  7444                           	callstack 0
  7445                           
  7446 ;; *************** function _CCP1_ISR *****************
  7447 ;; Defined at:
  7448 ;;		line 245 in file "mcal_layer/CCP/hal_ccp.c"
  7449 ;; Parameters:    Size  Location     Type
  7450 ;;		None
  7451 ;; Auto vars:     Size  Location     Type
  7452 ;;		None
  7453 ;; Return value:  Size  Location     Type
  7454 ;;                  1    wreg      void 
  7455 ;; Registers used:
  7456 ;;		None
  7457 ;; Tracked objects:
  7458 ;;		On entry : 0/0
  7459 ;;		On exit  : 0/0
  7460 ;;		Unchanged: 0/0
  7461 ;; Data sizes:     COMRAM   BANK0   BANK1   BANK2   BANK3   BANK4   BANK5   BANK6   BANK7   BANK8   BANK9  BANK10  BANK1
      +1  BANK12  BANK13  BANK14  BANK15
  7462 ;;      Params:         0       0       0       0       0       0       0       0       0       0       0       0       
      +0       0       0       0       0
  7463 ;;      Locals:         0       0       0       0       0       0       0       0       0       0       0       0       
      +0       0       0       0       0
  7464 ;;      Temps:          0       0       0       0       0       0       0       0       0       0       0       0       
      +0       0       0       0       0
  7465 ;;      Totals:         0       0       0       0       0       0       0       0       0       0       0       0       
      +0       0       0       0       0
  7466 ;;Total ram usage:        0 bytes
  7467 ;; Hardware stack levels used: 1
  7468 ;; This function calls:
  7469 ;;		Nothing
  7470 ;; This function is called by:
  7471 ;;		_InterruptManager
  7472 ;; This function uses a non-reentrant model
  7473 ;;
  7474                           
  7475                           	psect	text48
  7476   00307C                     __ptext48:
  7477                           	callstack 0
  7478   00307C                     _CCP1_ISR:
  7479                           	callstack 24
  7480   00307C                     
  7481                           ;mcal_layer/CCP/hal_ccp.c: 246:     (PIR1bits.CCP1IF = 0);
  7482   00307C  949E               	bcf	158,2,c	;volatile
  7483   00307E  0012               	return		;funcret
  7484   003080                     __end_of_CCP1_ISR:
  7485                           	callstack 0
  7486                           
  7487 ;; *************** function _ADC_ISR *****************
  7488 ;; Defined at:
  7489 ;;		line 289 in file "mcal_layer/ADC/hal_adc.c"
  7490 ;; Parameters:    Size  Location     Type
  7491 ;;		None
  7492 ;; Auto vars:     Size  Location     Type
  7493 ;;		None
  7494 ;; Return value:  Size  Location     Type
  7495 ;;                  1    wreg      void 
  7496 ;; Registers used:
  7497 ;;		None
  7498 ;; Tracked objects:
  7499 ;;		On entry : 0/0
  7500 ;;		On exit  : 0/0
  7501 ;;		Unchanged: 0/0
  7502 ;; Data sizes:     COMRAM   BANK0   BANK1   BANK2   BANK3   BANK4   BANK5   BANK6   BANK7   BANK8   BANK9  BANK10  BANK1
      +1  BANK12  BANK13  BANK14  BANK15
  7503 ;;      Params:         0       0       0       0       0       0       0       0       0       0       0       0       
      +0       0       0       0       0
  7504 ;;      Locals:         0       0       0       0       0       0       0       0       0       0       0       0       
      +0       0       0       0       0
  7505 ;;      Temps:          0       0       0       0       0       0       0       0       0       0       0       0       
      +0       0       0       0       0
  7506 ;;      Totals:         0       0       0       0       0       0       0       0       0       0       0       0       
      +0       0       0       0       0
  7507 ;;Total ram usage:        0 bytes
  7508 ;; Hardware stack levels used: 1
  7509 ;; This function calls:
  7510 ;;		Nothing
  7511 ;; This function is called by:
  7512 ;;		_InterruptManager
  7513 ;; This function uses a non-reentrant model
  7514 ;;
  7515                           
  7516                           	psect	text49
  7517   003080                     __ptext49:
  7518                           	callstack 0
  7519   003080                     _ADC_ISR:
  7520                           	callstack 24
  7521   003080                     
  7522                           ;mcal_layer/ADC/hal_adc.c: 290:     (PIR1bits.ADIF = 0);
  7523   003080  9C9E               	bcf	158,6,c	;volatile
  7524   003082  0012               	return		;funcret
  7525   003084                     __end_of_ADC_ISR:
  7526                           	callstack 0
  7527                           
  7528                           	psect	rparam
  7529   000000                     
  7530                           	psect	temp
  7531   00007A                     btemp:
  7532                           	callstack 0
  7533   00007A                     	ds	1
  7534   000000                     int$flags	set	btemp
  7535   000000                     wtemp8	set	btemp+1
  7536   000000                     ttemp5	set	btemp+1
  7537   000000                     ttemp6	set	btemp+4
  7538   000000                     ttemp7	set	btemp+8
  7539                           
  7540                           	psect	idloc
  7541                           
  7542                           ;Config register IDLOC0 @ 0x200000
  7543                           ;	unspecified, using default values
  7544   200000                     	org	2097152
  7545   200000  FF                 	db	255
  7546                           
  7547                           ;Config register IDLOC1 @ 0x200001
  7548                           ;	unspecified, using default values
  7549   200001                     	org	2097153
  7550   200001  FF                 	db	255
  7551                           
  7552                           ;Config register IDLOC2 @ 0x200002
  7553                           ;	unspecified, using default values
  7554   200002                     	org	2097154
  7555   200002  FF                 	db	255
  7556                           
  7557                           ;Config register IDLOC3 @ 0x200003
  7558                           ;	unspecified, using default values
  7559   200003                     	org	2097155
  7560   200003  FF                 	db	255
  7561                           
  7562                           ;Config register IDLOC4 @ 0x200004
  7563                           ;	unspecified, using default values
  7564   200004                     	org	2097156
  7565   200004  FF                 	db	255
  7566                           
  7567                           ;Config register IDLOC5 @ 0x200005
  7568                           ;	unspecified, using default values
  7569   200005                     	org	2097157
  7570   200005  FF                 	db	255
  7571                           
  7572                           ;Config register IDLOC6 @ 0x200006
  7573                           ;	unspecified, using default values
  7574   200006                     	org	2097158
  7575   200006  FF                 	db	255
  7576                           
  7577                           ;Config register IDLOC7 @ 0x200007
  7578                           ;	unspecified, using default values
  7579   200007                     	org	2097159
  7580   200007  FF                 	db	255
  7581                           
  7582                           	psect	config
  7583                           
  7584                           ; Padding undefined space
  7585   300000                     	org	3145728
  7586   300000  FF                 	db	255
  7587                           
  7588                           ;Config register CONFIG1H @ 0x300001
  7589                           ;	Oscillator Selection bits
  7590                           ;	OSC = HS, HS oscillator
  7591                           ;	Fail-Safe Clock Monitor Enable bit
  7592                           ;	FCMEN = OFF, Fail-Safe Clock Monitor disabled
  7593                           ;	Internal/External Oscillator Switchover bit
  7594                           ;	IESO = OFF, Oscillator Switchover mode disabled
  7595   300001                     	org	3145729
  7596   300001  02                 	db	2
  7597                           
  7598                           ;Config register CONFIG2L @ 0x300002
  7599                           ;	Power-up Timer Enable bit
  7600                           ;	PWRT = OFF, PWRT disabled
  7601                           ;	Brown-out Reset Enable bits
  7602                           ;	BOREN = OFF, Brown-out Reset disabled in hardware and software
  7603                           ;	Brown Out Reset Voltage bits
  7604                           ;	BORV = 1, 
  7605   300002                     	org	3145730
  7606   300002  09                 	db	9
  7607                           
  7608                           ;Config register CONFIG2H @ 0x300003
  7609                           ;	Watchdog Timer Enable bit
  7610                           ;	WDT = OFF, WDT disabled (control is placed on the SWDTEN bit)
  7611                           ;	Watchdog Timer Postscale Select bits
  7612                           ;	WDTPS = 32768, 1:32768
  7613   300003                     	org	3145731
  7614   300003  1E                 	db	30
  7615                           
  7616                           ; Padding undefined space
  7617   300004                     	org	3145732
  7618   300004  FF                 	db	255
  7619                           
  7620                           ;Config register CONFIG3H @ 0x300005
  7621                           ;	CCP2 MUX bit
  7622                           ;	CCP2MX = PORTC, CCP2 input/output is multiplexed with RC1
  7623                           ;	PORTB A/D Enable bit
  7624                           ;	PBADEN = OFF, PORTB<4:0> pins are configured as digital I/O on Reset
  7625                           ;	Low-Power Timer1 Oscillator Enable bit
  7626                           ;	LPT1OSC = OFF, Timer1 configured for higher power operation
  7627                           ;	MCLR Pin Enable bit
  7628                           ;	MCLRE = ON, MCLR pin enabled; RE3 input pin disabled
  7629   300005                     	org	3145733
  7630   300005  81                 	db	129
  7631                           
  7632                           ;Config register CONFIG4L @ 0x300006
  7633                           ;	Stack Full/Underflow Reset Enable bit
  7634                           ;	STVREN = ON, Stack full/underflow will cause Reset
  7635                           ;	Single-Supply ICSP Enable bit
  7636                           ;	LVP = OFF, Single-Supply ICSP disabled
  7637                           ;	Extended Instruction Set Enable bit
  7638                           ;	XINST = OFF, Instruction set extension and Indexed Addressing mode disabled (Legacy mo
      +                          de)
  7639                           ;	Background Debugger Enable bit
  7640                           ;	DEBUG = 0x1, unprogrammed default
  7641   300006                     	org	3145734
  7642   300006  81                 	db	129
  7643                           
  7644                           ; Padding undefined space
  7645   300007                     	org	3145735
  7646   300007  FF                 	db	255
  7647                           
  7648                           ;Config register CONFIG5L @ 0x300008
  7649                           ;	Code Protection bit
  7650                           ;	CP0 = OFF, Block 0 (000800-003FFFh) not code-protected
  7651                           ;	Code Protection bit
  7652                           ;	CP1 = OFF, Block 1 (004000-007FFFh) not code-protected
  7653                           ;	Code Protection bit
  7654                           ;	CP2 = OFF, Block 2 (008000-00BFFFh) not code-protected
  7655                           ;	Code Protection bit
  7656                           ;	CP3 = OFF, Block 3 (00C000-00FFFFh) not code-protected
  7657   300008                     	org	3145736
  7658   300008  0F                 	db	15
  7659                           
  7660                           ;Config register CONFIG5H @ 0x300009
  7661                           ;	Boot Block Code Protection bit
  7662                           ;	CPB = OFF, Boot block (000000-0007FFh) not code-protected
  7663                           ;	Data EEPROM Code Protection bit
  7664                           ;	CPD = OFF, Data EEPROM not code-protected
  7665   300009                     	org	3145737
  7666   300009  C0                 	db	192
  7667                           
  7668                           ;Config register CONFIG6L @ 0x30000A
  7669                           ;	Write Protection bit
  7670                           ;	WRT0 = OFF, Block 0 (000800-003FFFh) not write-protected
  7671                           ;	Write Protection bit
  7672                           ;	WRT1 = OFF, Block 1 (004000-007FFFh) not write-protected
  7673                           ;	Write Protection bit
  7674                           ;	WRT2 = OFF, Block 2 (008000-00BFFFh) not write-protected
  7675                           ;	Write Protection bit
  7676                           ;	WRT3 = OFF, Block 3 (00C000-00FFFFh) not write-protected
  7677   30000A                     	org	3145738
  7678   30000A  0F                 	db	15
  7679                           
  7680                           ;Config register CONFIG6H @ 0x30000B
  7681                           ;	Configuration Register Write Protection bit
  7682                           ;	WRTC = OFF, Configuration registers (300000-3000FFh) not write-protected
  7683                           ;	Boot Block Write Protection bit
  7684                           ;	WRTB = OFF, Boot Block (000000-0007FFh) not write-protected
  7685                           ;	Data EEPROM Write Protection bit
  7686                           ;	WRTD = OFF, Data EEPROM not write-protected
  7687   30000B                     	org	3145739
  7688   30000B  E0                 	db	224
  7689                           
  7690                           ;Config register CONFIG7L @ 0x30000C
  7691                           ;	Table Read Protection bit
  7692                           ;	EBTR0 = OFF, Block 0 (000800-003FFFh) not protected from table reads executed in other
      +                           blocks
  7693                           ;	Table Read Protection bit
  7694                           ;	EBTR1 = OFF, Block 1 (004000-007FFFh) not protected from table reads executed in other
      +                           blocks
  7695                           ;	Table Read Protection bit
  7696                           ;	EBTR2 = OFF, Block 2 (008000-00BFFFh) not protected from table reads executed in other
      +                           blocks
  7697                           ;	Table Read Protection bit
  7698                           ;	EBTR3 = OFF, Block 3 (00C000-00FFFFh) not protected from table reads executed in other
      +                           blocks
  7699   30000C                     	org	3145740
  7700   30000C  0F                 	db	15
  7701                           
  7702                           ;Config register CONFIG7H @ 0x30000D
  7703                           ;	Boot Block Table Read Protection bit
  7704                           ;	EBTRB = OFF, Boot Block (000000-0007FFh) not protected from table reads executed in ot
      +                          her blocks
  7705   30000D                     	org	3145741
  7706   30000D  40                 	db	64
  7707                           tosu	equ	0xFFF
  7708                           tosh	equ	0xFFE
  7709                           tosl	equ	0xFFD
  7710                           stkptr	equ	0xFFC
  7711                           pclatu	equ	0xFFB
  7712                           pclath	equ	0xFFA
  7713                           pcl	equ	0xFF9
  7714                           tblptru	equ	0xFF8
  7715                           tblptrh	equ	0xFF7
  7716                           tblptrl	equ	0xFF6
  7717                           tablat	equ	0xFF5
  7718                           prodh	equ	0xFF4
  7719                           prodl	equ	0xFF3
  7720                           indf0	equ	0xFEF
  7721                           postinc0	equ	0xFEE
  7722                           postdec0	equ	0xFED
  7723                           preinc0	equ	0xFEC
  7724                           plusw0	equ	0xFEB
  7725                           fsr0h	equ	0xFEA
  7726                           fsr0l	equ	0xFE9
  7727                           wreg	equ	0xFE8
  7728                           indf1	equ	0xFE7
  7729                           postinc1	equ	0xFE6
  7730                           postdec1	equ	0xFE5
  7731                           preinc1	equ	0xFE4
  7732                           plusw1	equ	0xFE3
  7733                           fsr1h	equ	0xFE2
  7734                           fsr1l	equ	0xFE1
  7735                           bsr	equ	0xFE0
  7736                           indf2	equ	0xFDF
  7737                           postinc2	equ	0xFDE
  7738                           postdec2	equ	0xFDD
  7739                           preinc2	equ	0xFDC
  7740                           plusw2	equ	0xFDB
  7741                           fsr2h	equ	0xFDA
  7742                           fsr2l	equ	0xFD9
  7743                           status	equ	0xFD8

Data Sizes:
    Strings     107
    Constant    16
    Data        81
    BSS         93
    Persistent  0
    Stack       0

Auto Spaces:
    Space          Size  Autos    Used
    COMRAM          126     37     121
    BANK0           128      5      95
    BANK1           256      0       0
    BANK2           256      0       0
    BANK3           256      0       0
    BANK4           256      0       0
    BANK5           256      0       0
    BANK6           256      0       0
    BANK7           256      0       0
    BANK8           256      0       0
    BANK9           256      0       0
    BANK10          256      0       0
    BANK11          256      0       0
    BANK12          256      0       0
    BANK13          256      0       0
    BANK14          256      0       0
    BANK15          128      0       0

Pointer List with Targets:

    vfprintf$2	PTR PTR void  size(2) Largest target is 2
		 -> sprintf@ap(COMRAM[2]), 

    vfprintf$1	PTR const unsigned char  size(2) Largest target is 3
		 -> STR_2(CODE[3]), STR_1(CODE[3]), 

    vfprintf$0	PTR struct _IO_FILE size(2) Largest target is 12
		 -> sprintf@f(COMRAM[12]), 

    S4739$source	PTR const unsigned char  size(2) Largest target is 0

    f...source	PTR const unsigned char  size(2) Largest target is 0

    S4739$buffer	PTR unsigned char  size(2) Largest target is 0

    f...buffer	PTR unsigned char  size(2) Largest target is 0

    timer0_counter_obj.TMR0_InterruptHandler	PTR FTN()void  size(2) Largest target is 1
		 -> NULL(), 

    EUSART_OverrunErrorHandler	PTR FTN()void  size(2) Largest target is 1
		 -> NULL(), 

    EUSART_FramingErrorHandler	PTR FTN()void  size(2) Largest target is 1
		 -> NULL(), 

    EUSART_RxInterruptHandler	PTR FTN()void  size(2) Largest target is 1
		 -> NULL(), 

    EUSART_ASYNC_RX_Init@_eusart.EUSART_OverrunErrorHandler	PTR FTN()void  size(2) Largest target is 0

    EUSART_ASYNC_RX_Init@_eusart.EUSART_FramingErrorHandler	PTR FTN()void  size(2) Largest target is 0

    EUSART_ASYNC_RX_Init@_eusart.EUSART_RxDefaultInterruptHandler	PTR FTN()void  size(2) Largest target is 0

    EUSART_ASYNC_RX_Init@_eusart.EUSART_TxDefaultInterruptHandler	PTR FTN()void  size(2) Largest target is 0

    EUSART_TxInterruptHandler	PTR FTN()void  size(2) Largest target is 1
		 -> NULL(), 

    EUSART_ASYNC_TX_Init@_eusart.EUSART_OverrunErrorHandler	PTR FTN()void  size(2) Largest target is 0

    EUSART_ASYNC_TX_Init@_eusart.EUSART_FramingErrorHandler	PTR FTN()void  size(2) Largest target is 0

    EUSART_ASYNC_TX_Init@_eusart.EUSART_RxDefaultInterruptHandler	PTR FTN()void  size(2) Largest target is 0

    EUSART_ASYNC_TX_Init@_eusart.EUSART_TxDefaultInterruptHandler	PTR FTN()void  size(2) Largest target is 0

    S3680$EUSART_OverrunErrorHandler	PTR FTN()void  size(2) Largest target is 0

    EUSART_Baud_Rate_Calculation@_eusart.EUSART_OverrunErrorHandler	PTR FTN()void  size(2) Largest target is 0

    S3680$EUSART_FramingErrorHandler	PTR FTN()void  size(2) Largest target is 0

    EUSART_Baud_Rate_Calculation@_eusart.EUSART_FramingErrorHandler	PTR FTN()void  size(2) Largest target is 0

    S3680$EUSART_RxDefaultInterruptHandler	PTR FTN()void  size(2) Largest target is 0

    EUSART_Baud_Rate_Calculation@_eusart.EUSART_RxDefaultInterruptHandler	PTR FTN()void  size(2) Largest target is 0

    S3680$EUSART_TxDefaultInterruptHandler	PTR FTN()void  size(2) Largest target is 0

    EUSART_Baud_Rate_Calculation@_eusart.EUSART_TxDefaultInterruptHandler	PTR FTN()void  size(2) Largest target is 0

    Timer3_Mode_Select@_timer.TMR3_InterruptHandler	PTR FTN()void  size(2) Largest target is 0

    TMR3_InterruptHandler	PTR FTN()void  size(2) Largest target is 1
		 -> NULL(), 

    S3486$TMR3_InterruptHandler	PTR FTN()void  size(2) Largest target is 0

    Timer3_Init@_timer.TMR3_InterruptHandler	PTR FTN()void  size(2) Largest target is 0

    TMR2_InterruptHandler	PTR FTN()void  size(2) Largest target is 1
		 -> NULL(), 

    S3357$TMR2_InterruptHandler	PTR FTN()void  size(2) Largest target is 0

    Timer2_Init@_timer.TMR2_InterruptHandler	PTR FTN()void  size(2) Largest target is 0

    Timer1_Mode_Select@_timer.TMR1_InterruptHandler	PTR FTN()void  size(2) Largest target is 0

    TMR1_InterruptHandler	PTR FTN()volatile void  size(2) Largest target is 1
		 -> NULL(), 

    S3167$TMR1_InterruptHandler	PTR FTN()void  size(2) Largest target is 0

    Timer1_Init@_timer.TMR1_InterruptHandler	PTR FTN()void  size(2) Largest target is 0

    Timer0_Register_Size_Config@_timer.TMR0_InterruptHandler	PTR FTN()void  size(2) Largest target is 1
		 -> NULL(), 

    Timer0_Register_Size_Config@_timer	PTR const struct . size(2) Largest target is 7
		 -> timer0_counter_obj(BANK0[7]), 

    Timer0_Mode_Select@_timer.TMR0_InterruptHandler	PTR FTN()void  size(2) Largest target is 1
		 -> NULL(), 

    Timer0_Mode_Select@_timer	PTR const struct . size(2) Largest target is 7
		 -> timer0_counter_obj(BANK0[7]), 

    Timer0_Prescaler_Config@_timer.TMR0_InterruptHandler	PTR FTN()void  size(2) Largest target is 1
		 -> NULL(), 

    Timer0_Prescaler_Config@_timer	PTR const struct . size(2) Largest target is 7
		 -> timer0_counter_obj(BANK0[7]), 

    Timer0_Read_Value@_value	PTR unsigned short  size(2) Largest target is 2
		 -> Counter_Value(COMRAM[2]), 

    Timer0_Read_Value@_timer	PTR const struct . size(2) Largest target is 7
		 -> timer0_counter_obj(BANK0[7]), 

    Timer0_Write_Value@_timer	PTR const struct . size(2) Largest target is 7
		 -> timer0_counter_obj(BANK0[7]), 

    TMR0_InterruptHandler	PTR FTN()void  size(2) Largest target is 1
		 -> NULL(), 

    S3002$TMR0_InterruptHandler	PTR FTN()void  size(2) Largest target is 1
		 -> NULL(), 

    Timer0_Init@_timer.TMR0_InterruptHandler	PTR FTN()void  size(2) Largest target is 1
		 -> NULL(), 

    Timer0_Init@_timer	PTR const struct . size(2) Largest target is 7
		 -> timer0_counter_obj(BANK0[7]), 

    Interrupt_INTx_SetInterruptHandler@int_obj.EXT_InterruptHandler	PTR FTN()void  size(2) Largest target is 0

    Interrupt_INTx_Clear_Flag@int_obj.EXT_InterruptHandler	PTR FTN()void  size(2) Largest target is 0

    Interrupt_INTx_Pin_Init@int_obj.EXT_InterruptHandler	PTR FTN()void  size(2) Largest target is 0

    Interrupt_INTx_Edge_Init@int_obj.EXT_InterruptHandler	PTR FTN()void  size(2) Largest target is 0

    Interrupt_INTx_Disable@int_obj.EXT_InterruptHandler	PTR FTN()void  size(2) Largest target is 0

    S2685$EXT_InterruptHandler	PTR FTN()void  size(2) Largest target is 0

    Interrupt_INTx_Enable@int_obj.EXT_InterruptHandler	PTR FTN()void  size(2) Largest target is 0

    S2783$EXT_InterruptHandler_LOW	PTR FTN()void  size(2) Largest target is 0

    Interrupt_RBx_Init@int_obj.EXT_InterruptHandler_LOW	PTR FTN()void  size(2) Largest target is 0

    S2783$EXT_InterruptHandler_HIGH	PTR FTN()void  size(2) Largest target is 0

    Interrupt_RBx_Init@int_obj.EXT_InterruptHandler_HIGH	PTR FTN()void  size(2) Largest target is 0

    RB7_InterruptHandler_LOW	PTR FTN()void  size(2) Largest target is 1
		 -> NULL(), 

    RB7_InterruptHandler_HIGH	PTR FTN()void  size(2) Largest target is 1
		 -> NULL(), 

    RB6_InterruptHandler_LOW	PTR FTN()void  size(2) Largest target is 1
		 -> NULL(), 

    RB6_InterruptHandler_HIGH	PTR FTN()void  size(2) Largest target is 1
		 -> NULL(), 

    RB5_InterruptHandler_LOW	PTR FTN()void  size(2) Largest target is 1
		 -> NULL(), 

    RB5_InterruptHandler_HIGH	PTR FTN()void  size(2) Largest target is 1
		 -> NULL(), 

    RB4_InterruptHandler_LOW	PTR FTN()void  size(2) Largest target is 1
		 -> NULL(), 

    RB4_InterruptHandler_HIGH	PTR FTN()void  size(2) Largest target is 1
		 -> NULL(), 

    INT2_InterruptHandler	PTR FTN()void  size(2) Largest target is 1
		 -> NULL(), 

    INT1_InterruptHandler	PTR FTN()void  size(2) Largest target is 1
		 -> NULL(), 

    INT0_InterruptHandler	PTR FTN()void  size(2) Largest target is 1
		 -> NULL(), 

    I2C_Report_Receive_Overflow_InterruptHandle	PTR FTN()void  size(2) Largest target is 1
		 -> NULL(), 

    MSSP_I2C_Interrupt_Configurations@i2c_obj.I2C_Report_Receive_Overflow	PTR FTN()void  size(2) Largest target is 0

    MSSP_I2C_Interrupt_Configurations@i2c_obj.I2C_DefaultInterruptHandler	PTR FTN()void  size(2) Largest target is 0

    MSSP_I2C_Interrupt_Configurations@i2c_obj.I2C_Report_Write_Collision	PTR FTN()void  size(2) Largest target is 0

    I2C_Slave_Mode_Configurations@i2c_obj.I2C_Report_Receive_Overflow	PTR FTN()void  size(2) Largest target is 0

    I2C_Slave_Mode_Configurations@i2c_obj.I2C_DefaultInterruptHandler	PTR FTN()void  size(2) Largest target is 0

    I2C_Slave_Mode_Configurations@i2c_obj.I2C_Report_Write_Collision	PTR FTN()void  size(2) Largest target is 0

    I2C_Master_Mode_Clock_Configurations@i2c_obj.I2C_Report_Receive_Overflow	PTR FTN()void  size(2) Largest target is 0

    I2C_Master_Mode_Clock_Configurations@i2c_obj.I2C_DefaultInterruptHandler	PTR FTN()void  size(2) Largest target is 0

    I2C_Master_Mode_Clock_Configurations@i2c_obj.I2C_Report_Write_Collision	PTR FTN()void  size(2) Largest target is 0

    I2C_Report_Write_Collision_InterruptHandler	PTR FTN()void  size(2) Largest target is 1
		 -> NULL(), 

    I2C_DefaultInterruptHandle	PTR FTN()void  size(2) Largest target is 1
		 -> NULL(), 

    S1860$I2C_Report_Receive_Overflow	PTR FTN()void  size(2) Largest target is 0

    MSSP_I2C_Init@i2c_obj.I2C_Report_Receive_Overflow	PTR FTN()void  size(2) Largest target is 0

    S1860$I2C_DefaultInterruptHandler	PTR FTN()void  size(2) Largest target is 0

    MSSP_I2C_Init@i2c_obj.I2C_DefaultInterruptHandler	PTR FTN()void  size(2) Largest target is 0

    S1860$I2C_Report_Write_Collision	PTR FTN()void  size(2) Largest target is 0

    MSSP_I2C_Init@i2c_obj.I2C_Report_Write_Collision	PTR FTN()void  size(2) Largest target is 0

    gpio_pin_intialize@pin_config	PTR const struct . size(2) Largest target is 8
		 -> seg_pin_1(COMRAM[1]), seg_pin_2(COMRAM[1]), seg_pin_3(COMRAM[1]), seg_pin_4(COMRAM[1]), 
		 -> seg_pin_5(COMRAM[1]), seg_pin_6(COMRAM[1]), segment_1.segment_pins(BANK0[4]), segment_1(BANK0[5]), 
		 -> keypad1.keypad_row_pins(BANK0[4]), keypad1(BANK0[8]), lcd_1.lcd_data(COMRAM[4]), lcd_1(COMRAM[6]), 
		 -> relay_initialize@object(COMRAM[1]), led_initialize@object(COMRAM[1]), dc_motor_initialize@motor_con2(COMRAM[1]), dc_motor_initialize@motor_con1(COMRAM[1]), 

    gpio_pin_read_logic@logic	PTR enum E2968 size(2) Largest target is 1
		 -> keypad_get_value_blocking@column_logic(COMRAM[1]), keypad_read_switch@status_pin(COMRAM[1]), keypad_get_value@column_logic(COMRAM[1]), button_read_state@pin_t(COMRAM[1]), 

    gpio_pin_read_logic@pin_config	PTR const struct . size(2) Largest target is 8
		 -> keypad1.keypad_columns_pins(BANK0[4]), keypad1(BANK0[8]), 

    gpio_pin_write_logic@pin_config	PTR const struct . size(2) Largest target is 8
		 -> seg_pin_1(COMRAM[1]), seg_pin_2(COMRAM[1]), seg_pin_3(COMRAM[1]), seg_pin_4(COMRAM[1]), 
		 -> seg_pin_5(COMRAM[1]), seg_pin_6(COMRAM[1]), segment_1.segment_pins(BANK0[4]), segment_1(BANK0[5]), 
		 -> keypad1.keypad_row_pins(BANK0[4]), keypad1(BANK0[8]), lcd_1.lcd_data(COMRAM[4]), lcd_1(COMRAM[6]), 
		 -> relay_turn_off@object(COMRAM[1]), relay_turn_on@object(COMRAM[1]), relay_initialize@object(COMRAM[1]), led_turn_off@object(COMRAM[1]), 
		 -> led_turn_on@object(COMRAM[1]), led_initialize@object(COMRAM[1]), dc_motor_stop@motor_con2(COMRAM[1]), dc_motor_stop@motor_con1(COMRAM[1]), 
		 -> dc_motor_move_left@motor_con2(COMRAM[1]), dc_motor_move_left@motor_con1(COMRAM[1]), dc_motor_move_right@motor_con2(COMRAM[1]), dc_motor_move_right@motor_con1(COMRAM[1]), 
		 -> dc_motor_initialize@motor_con2(COMRAM[1]), dc_motor_initialize@motor_con1(COMRAM[1]), 

    gpio_pin_direction_intialize@pin_config	PTR const struct . size(2) Largest target is 8
		 -> seg_pin_1(COMRAM[1]), seg_pin_2(COMRAM[1]), seg_pin_3(COMRAM[1]), seg_pin_4(COMRAM[1]), 
		 -> seg_pin_5(COMRAM[1]), seg_pin_6(COMRAM[1]), segment_1.segment_pins(BANK0[4]), segment_1(BANK0[5]), 
		 -> keypad1.keypad_columns_pins(BANK0[4]), keypad1.keypad_row_pins(BANK0[4]), keypad1(BANK0[8]), lcd_1.lcd_data(COMRAM[4]), 
		 -> lcd_1(COMRAM[6]), relay_initialize@object(COMRAM[1]), led_initialize@object(COMRAM[1]), dc_motor_initialize@motor_con2(COMRAM[1]), 
		 -> dc_motor_initialize@motor_con1(COMRAM[1]), 

    port_register	PTR volatile unsigned char [5] size(2) Largest target is 1
		 -> PORTE(BITBIGSFRllllll[1]), PORTD(BITBIGSFRllllll[1]), PORTC(BITBIGSFRllllll[1]), PORTB(BITBIGSFRllllll[1]), 
		 -> PORTA(BITBIGSFRllllll[1]), 

    lat_register	PTR volatile unsigned char [5] size(2) Largest target is 1
		 -> LATE(BITBIGSFRlllllh[1]), LATD(BITBIGSFRlllllh[1]), LATC(BITBIGSFRlllllh[1]), LATB(BITBIGSFRlllllh[1]), 
		 -> LATA(BITBIGSFRllllll[1]), 

    tris_register	PTR volatile unsigned char [5] size(2) Largest target is 1
		 -> TRISD(ABS[1]), TRISC(ABS[1]), TRISB(ABS[1]), TRISE(ABS[1]), 
		 -> TRISA(BITBIGSFRllllll[1]), 

    CCP_Compare_Mode_Config@_ccp_obj.CCP2_InterruptHandler	PTR FTN()void  size(2) Largest target is 0

    CCP_Compare_Mode_Config@_ccp_obj.CCP1_InterruptHandler	PTR FTN()void  size(2) Largest target is 0

    CCP_Capture_Mode_Config@_ccp_obj.CCP2_InterruptHandler	PTR FTN()void  size(2) Largest target is 0

    CCP_Capture_Mode_Config@_ccp_obj.CCP1_InterruptHandler	PTR FTN()void  size(2) Largest target is 0

    CCP_Mode_Timer_Select@_ccp_obj.CCP2_InterruptHandler	PTR FTN()void  size(2) Largest target is 0

    CCP_Mode_Timer_Select@_ccp_obj.CCP1_InterruptHandler	PTR FTN()void  size(2) Largest target is 0

    CCP_Interrupt_Config@_ccp_obj.CCP2_InterruptHandler	PTR FTN()void  size(2) Largest target is 0

    CCP_Interrupt_Config@_ccp_obj.CCP1_InterruptHandler	PTR FTN()void  size(2) Largest target is 0

    CCP2_InterruptHandler	PTR FTN()void  size(2) Largest target is 1
		 -> NULL(), 

    CCP1_InterruptHandler	PTR FTN()void  size(2) Largest target is 1
		 -> NULL(), 

    CCP_Compare_Mode_Set_Value@_ccp_obj.CCP2_InterruptHandler	PTR FTN()void  size(2) Largest target is 0

    CCP_Compare_Mode_Set_Value@_ccp_obj.CCP1_InterruptHandler	PTR FTN()void  size(2) Largest target is 0

    CCP_DeInit@_ccp_obj.CCP2_InterruptHandler	PTR FTN()void  size(2) Largest target is 0

    CCP_DeInit@_ccp_obj.CCP1_InterruptHandler	PTR FTN()void  size(2) Largest target is 0

    S1286$CCP2_InterruptHandler	PTR FTN()void  size(2) Largest target is 0

    CCP_Init@_ccp_obj.CCP2_InterruptHandler	PTR FTN()void  size(2) Largest target is 0

    S1286$CCP1_InterruptHandler	PTR FTN()void  size(2) Largest target is 0

    CCP_Init@_ccp_obj.CCP1_InterruptHandler	PTR FTN()void  size(2) Largest target is 0

    configure_voltage_reference@_adc.ADC_InterruptHandler	PTR FTN()void  size(2) Largest target is 0

    select_result_format@_adc.ADC_InterruptHandler	PTR FTN()void  size(2) Largest target is 0

    ADC_GetConversionResult@_adc.ADC_InterruptHandler	PTR FTN()void  size(2) Largest target is 0

    ADC_InterruptHandler	PTR FTN()void  size(2) Largest target is 1
		 -> NULL(), 

    S898$ADC_InterruptHandler	PTR FTN()void  size(2) Largest target is 0

    ADC_Init@_adc.ADC_InterruptHandler	PTR FTN()void  size(2) Largest target is 0

    led_turn_off@led	PTR const struct . size(2) Largest target is 1
		 -> led1(COMRAM[1]), led2(COMRAM[1]), 

    led_turn_on@led	PTR const struct . size(2) Largest target is 1
		 -> led1(COMRAM[1]), led2(COMRAM[1]), 

    led_initialize@led	PTR const struct . size(2) Largest target is 1
		 -> led1(COMRAM[1]), led2(COMRAM[1]), 

    keypad_get_value_blocking@value	PTR unsigned char  size(2) Largest target is 1
		 -> value32(COMRAM[1]), value31(COMRAM[1]), value22(COMRAM[1]), value21(COMRAM[1]), 
		 -> value12(COMRAM[1]), value11(COMRAM[1]), 

    keypad_get_value_blocking@_keypad_obj	PTR const struct . size(2) Largest target is 8
		 -> keypad1(BANK0[8]), 

    keypad_read_switch@keypad	PTR const struct . size(2) Largest target is 8
		 -> keypad1(BANK0[8]), 

    keypad_read_switch@status	PTR unsigned char  size(2) Largest target is 1
		 -> key_value(COMRAM[1]), 

    keypad_get_value@value	PTR unsigned char  size(2) Largest target is 1
		 -> key_value(COMRAM[1]), 

    keypad_get_value@_keypad_obj	PTR const struct . size(2) Largest target is 8
		 -> keypad1(BANK0[8]), 

    keypad_initialize@_keypad_obj	PTR const struct . size(2) Largest target is 8
		 -> keypad1(BANK0[8]), 

    port_registers	PTR volatile unsigned char [5] size(2) Largest target is 1
		 -> PORTE(BITBIGSFRllllll[1]), PORTD(BITBIGSFRllllll[1]), PORTC(BITBIGSFRllllll[1]), PORTB(BITBIGSFRllllll[1]), 
		 -> PORTA(BITBIGSFRllllll[1]), 

    lcd_4bit_set_cursor@lcd	PTR const struct . size(2) Largest target is 6
		 -> lcd_1(COMRAM[6]), 

    lcd_4bit_send_enable_signal@lcd	PTR const struct . size(2) Largest target is 6
		 -> lcd_1(COMRAM[6]), 

    lcd_send_4bits@lcd	PTR const struct . size(2) Largest target is 6
		 -> lcd_1(COMRAM[6]), 

    sp__memset	PTR void  size(2) Largest target is 0

    lcd_4bit_send_string_pos@str	PTR unsigned char  size(2) Largest target is 15
		 -> STR_14(CODE[10]), STR_13(CODE[11]), STR_12(CODE[15]), STR_11(CODE[10]), 
		 -> STR_10(CODE[15]), STR_9(CODE[8]), STR_8(CODE[10]), STR_7(CODE[10]), 
		 -> STR_6(CODE[10]), STR_5(CODE[15]), STR_4(CODE[14]), STR_3(CODE[11]), 

    lcd_4bit_send_string_pos@lcd	PTR const struct . size(2) Largest target is 6
		 -> lcd_1(COMRAM[6]), 

    lcd_4bit_send_char_data_pos@lcd	PTR const struct . size(2) Largest target is 6
		 -> lcd_1(COMRAM[6]), 

    lcd_4bit_send_char_data@lcd	PTR const struct . size(2) Largest target is 6
		 -> lcd_1(COMRAM[6]), 

    lcd_4bit_send_command@lcd	PTR const struct . size(2) Largest target is 6
		 -> lcd_1(COMRAM[6]), 

    lcd_4bit_intialize@lcd	PTR const struct . size(2) Largest target is 6
		 -> lcd_1(COMRAM[6]), 

    seven_segement_write_number@seg	PTR const struct . size(2) Largest target is 5
		 -> segment_1(BANK0[5]), 

    seven_segement_intialize@seg	PTR const struct . size(2) Largest target is 5
		 -> segment_1(BANK0[5]), 


Critical Paths under _main in COMRAM

    _main->_lcd_4bit_send_string_pos
    _seven_segement_write_number->_gpio_pin_write_logic
    _led_turn_on->_gpio_pin_write_logic
    _led_turn_off->_gpio_pin_write_logic
    _lcd_4bit_send_string_pos->_lcd_4bit_set_cursor
    _lcd_4bit_send_char_data_pos->_lcd_4bit_set_cursor
    _lcd_4bit_set_cursor->_lcd_4bit_send_command
    _lcd_4bit_send_char_data->_lcd_send_4bits
    _keypad_read_switch->_gpio_pin_read_logic
    _keypad_read_switch->_gpio_pin_write_logic
    _keypad_get_value_blocking->_gpio_pin_read_logic
    _keypad_get_value_blocking->_gpio_pin_write_logic
    _keypad_get_value->_gpio_pin_read_logic
    _keypad_get_value->_gpio_pin_write_logic
    _application_intialize->_lcd_4bit_intialize
    _seven_segement_intialize->_gpio_pin_intialize
    _led_initialize->_gpio_pin_intialize
    _lcd_4bit_intialize->_lcd_4bit_send_command
    _lcd_4bit_send_command->_lcd_send_4bits
    _lcd_send_4bits->_gpio_pin_write_logic
    _lcd_4bit_send_enable_signal->_gpio_pin_write_logic
    _keypad_initialize->_gpio_pin_intialize
    _gpio_pin_intialize->_gpio_pin_write_logic
    _Timer0_Init->_Timer0_Prescaler_Config

Critical Paths under _InterruptManager in COMRAM

    _InterruptManager->_RB4_ISR
    _InterruptManager->_RB5_ISR
    _InterruptManager->_RB6_ISR
    _InterruptManager->_RB7_ISR

Critical Paths under _main in BANK0

    None.

Critical Paths under _InterruptManager in BANK0

    None.

Critical Paths under _main in BANK1

    None.

Critical Paths under _InterruptManager in BANK1

    None.

Critical Paths under _main in BANK2

    None.

Critical Paths under _InterruptManager in BANK2

    None.

Critical Paths under _main in BANK3

    None.

Critical Paths under _InterruptManager in BANK3

    None.

Critical Paths under _main in BANK4

    None.

Critical Paths under _InterruptManager in BANK4

    None.

Critical Paths under _main in BANK5

    None.

Critical Paths under _InterruptManager in BANK5

    None.

Critical Paths under _main in BANK6

    None.

Critical Paths under _InterruptManager in BANK6

    None.

Critical Paths under _main in BANK7

    None.

Critical Paths under _InterruptManager in BANK7

    None.

Critical Paths under _main in BANK8

    None.

Critical Paths under _InterruptManager in BANK8

    None.

Critical Paths under _main in BANK9

    None.

Critical Paths under _InterruptManager in BANK9

    None.

Critical Paths under _main in BANK10

    None.

Critical Paths under _InterruptManager in BANK10

    None.

Critical Paths under _main in BANK11

    None.

Critical Paths under _InterruptManager in BANK11

    None.

Critical Paths under _main in BANK12

    None.

Critical Paths under _InterruptManager in BANK12

    None.

Critical Paths under _main in BANK13

    None.

Critical Paths under _InterruptManager in BANK13

    None.

Critical Paths under _main in BANK14

    None.

Critical Paths under _InterruptManager in BANK14

    None.

Critical Paths under _main in BANK15

    None.

Critical Paths under _InterruptManager in BANK15

    None.

Call Graph Tables:

 ---------------------------------------------------------------------------------
 (Depth) Function   	        Calls       Base Space   Used Autos Params    Refs
 ---------------------------------------------------------------------------------
 (0) _main                                                 7     7      0  328591
                                             35 COMRAM     2     2      0
                                              0 BANK0      5     5      0
                  _Timer0_Read_Value
                 _Timer0_Write_Value
                            ___lwdiv
                            ___lwmod
              _application_intialize
               _gpio_pin_write_logic
                   _keypad_get_value
          _keypad_get_value_blocking
                 _keypad_read_switch
        _lcd_4bit_send_char_data_pos
              _lcd_4bit_send_command
           _lcd_4bit_send_string_pos
                       _led_turn_off
                        _led_turn_on
        _seven_segement_write_number
 ---------------------------------------------------------------------------------
 (1) _seven_segement_write_number                          4     1      3   10156
                                             11 COMRAM     4     1      3
                            ___lwdiv (ARG)
                            ___lwmod (ARG)
               _gpio_pin_write_logic
 ---------------------------------------------------------------------------------
 (1) _led_turn_on                                          5     3      2    9095
                                             11 COMRAM     4     2      2
               _gpio_pin_write_logic
 ---------------------------------------------------------------------------------
 (1) _led_turn_off                                         5     3      2    9095
                                             11 COMRAM     4     2      2
               _gpio_pin_write_logic
 ---------------------------------------------------------------------------------
 (1) _lcd_4bit_send_string_pos                             8     2      6   65814
                                             27 COMRAM     8     2      6
            _lcd_4bit_send_char_data
                _lcd_4bit_set_cursor
 ---------------------------------------------------------------------------------
 (1) _lcd_4bit_send_char_data_pos                          7     2      5   63980
                                             27 COMRAM     7     2      5
            _lcd_4bit_send_char_data
                _lcd_4bit_set_cursor
 ---------------------------------------------------------------------------------
 (2) _lcd_4bit_set_cursor                                  7     3      4   32578
                                             20 COMRAM     7     3      4
              _lcd_4bit_send_command
 ---------------------------------------------------------------------------------
 (2) _lcd_4bit_send_char_data                              5     2      3   28650
                                             15 COMRAM     5     2      3
               _gpio_pin_write_logic
        _lcd_4bit_send_enable_signal
                     _lcd_send_4bits
 ---------------------------------------------------------------------------------
 (1) _keypad_read_switch                                  16    12      4   10840
                                             11 COMRAM    16    12      4
                _gpio_pin_read_logic
               _gpio_pin_write_logic
 ---------------------------------------------------------------------------------
 (1) _keypad_get_value_blocking                           18    14      4   11771
                                             11 COMRAM    17    13      4
                _gpio_pin_read_logic
               _gpio_pin_write_logic
 ---------------------------------------------------------------------------------
 (1) _keypad_get_value                                    11     7      4   10688
                                             11 COMRAM    11     7      4
                _gpio_pin_read_logic
               _gpio_pin_write_logic
 ---------------------------------------------------------------------------------
 (2) _gpio_pin_read_logic                                 10     6      4    1123
                                              1 COMRAM    10     6      4
 ---------------------------------------------------------------------------------
 (1) _application_intialize                                1     1      0   93211
                        _Timer0_Init
                 _gpio_pin_intialize
                  _keypad_initialize
                 _lcd_4bit_intialize
                     _led_initialize
           _seven_segement_intialize
 ---------------------------------------------------------------------------------
 (2) _seven_segement_intialize                             3     1      2   11896
                                             15 COMRAM     3     1      2
                 _gpio_pin_intialize
 ---------------------------------------------------------------------------------
 (2) _led_initialize                                       5     3      2   12028
                                             15 COMRAM     5     3      2
                 _gpio_pin_intialize
 ---------------------------------------------------------------------------------
 (2) _lcd_4bit_intialize                                   6     4      2   43980
                                             20 COMRAM     6     4      2
                 _gpio_pin_intialize
              _lcd_4bit_send_command
 ---------------------------------------------------------------------------------
 (3) _lcd_4bit_send_command                                5     2      3   31710
                                             15 COMRAM     5     2      3
               _gpio_pin_write_logic
        _lcd_4bit_send_enable_signal
                     _lcd_send_4bits
 ---------------------------------------------------------------------------------
 (4) _lcd_send_4bits                                       4     1      3    9731
                                             11 COMRAM     4     1      3
               _gpio_pin_write_logic
 ---------------------------------------------------------------------------------
 (4) _lcd_4bit_send_enable_signal                          3     1      2    9179
                                             11 COMRAM     3     1      2
               _gpio_pin_write_logic
 ---------------------------------------------------------------------------------
 (2) _keypad_initialize                                    7     5      2   12739
                                             15 COMRAM     7     5      2
       _gpio_pin_direction_intialize
                 _gpio_pin_intialize
 ---------------------------------------------------------------------------------
 (3) _gpio_pin_intialize                                   4     2      2   11602
                                             11 COMRAM     4     2      2
       _gpio_pin_direction_intialize
               _gpio_pin_write_logic
 ---------------------------------------------------------------------------------
 (2) _gpio_pin_write_logic                                10     7      3    8717
                                              1 COMRAM    10     7      3
 ---------------------------------------------------------------------------------
 (4) _gpio_pin_direction_intialize                         9     7      2     707
                                              1 COMRAM     9     7      2
 ---------------------------------------------------------------------------------
 (2) _Timer0_Init                                          5     3      2     927
                                              4 COMRAM     5     3      2
                 _Timer0_Mode_Select
            _Timer0_Prescaler_Config
        _Timer0_Register_Size_Config
 ---------------------------------------------------------------------------------
 (3) _Timer0_Register_Size_Config                          2     0      2     152
                                              1 COMRAM     2     0      2
 ---------------------------------------------------------------------------------
 (3) _Timer0_Prescaler_Config                              3     1      2     183
                                              1 COMRAM     3     1      2
 ---------------------------------------------------------------------------------
 (3) _Timer0_Mode_Select                                   2     0      2     214
                                              1 COMRAM     2     0      2
 ---------------------------------------------------------------------------------
 (1) ___lwmod                                              5     1      4    1312
                                              1 COMRAM     5     1      4
 ---------------------------------------------------------------------------------
 (1) ___lwdiv                                              7     3      4    1141
                                              1 COMRAM     7     3      4
 ---------------------------------------------------------------------------------
 (1) _Timer0_Write_Value                                   5     1      4     493
                                              1 COMRAM     5     1      4
 ---------------------------------------------------------------------------------
 (1) _Timer0_Read_Value                                    9     5      4     356
                                              1 COMRAM     9     5      4
 ---------------------------------------------------------------------------------
 Estimated maximum stack depth 4
 ---------------------------------------------------------------------------------
 (Depth) Function   	        Calls       Base Space   Used Autos Params    Refs
 ---------------------------------------------------------------------------------
 (6) _InterruptManager                                     0     0      0     148
                            _ADC_ISR
                           _CCP1_ISR
                           _CCP2_ISR
                      _EUSART_RX_ISR
                      _EUSART_TX_ISR
                           _INT0_ISR
                           _INT1_ISR
                           _INT2_ISR
                    _MSSP_I2C_BC_ISR
                       _MSSP_I2C_ISR
                            _RB4_ISR
                            _RB5_ISR
                            _RB6_ISR
                            _RB7_ISR
                           _TMR0_ISR
                           _TMR1_ISR
                           _TMR2_ISR
                           _TMR3_ISR
 ---------------------------------------------------------------------------------
 (7) _TMR3_ISR                                             0     0      0       0
 ---------------------------------------------------------------------------------
 (7) _TMR2_ISR                                             0     0      0       0
 ---------------------------------------------------------------------------------
 (7) _TMR1_ISR                                             0     0      0       0
 ---------------------------------------------------------------------------------
 (7) _TMR0_ISR                                             0     0      0       0
 ---------------------------------------------------------------------------------
 (7) _RB7_ISR                                              1     1      0      44
                                              0 COMRAM     1     1      0
 ---------------------------------------------------------------------------------
 (7) _RB6_ISR                                              1     1      0      44
                                              0 COMRAM     1     1      0
 ---------------------------------------------------------------------------------
 (7) _RB5_ISR                                              1     1      0      30
                                              0 COMRAM     1     1      0
 ---------------------------------------------------------------------------------
 (7) _RB4_ISR                                              1     1      0      30
                                              0 COMRAM     1     1      0
 ---------------------------------------------------------------------------------
 (7) _MSSP_I2C_ISR                                         0     0      0       0
 ---------------------------------------------------------------------------------
 (7) _MSSP_I2C_BC_ISR                                      0     0      0       0
 ---------------------------------------------------------------------------------
 (7) _INT2_ISR                                             0     0      0       0
 ---------------------------------------------------------------------------------
 (7) _INT1_ISR                                             0     0      0       0
 ---------------------------------------------------------------------------------
 (7) _INT0_ISR                                             0     0      0       0
 ---------------------------------------------------------------------------------
 (7) _EUSART_TX_ISR                                        0     0      0       0
 ---------------------------------------------------------------------------------
 (7) _EUSART_RX_ISR                                        0     0      0       0
 ---------------------------------------------------------------------------------
 (7) _CCP2_ISR                                             0     0      0       0
 ---------------------------------------------------------------------------------
 (7) _CCP1_ISR                                             0     0      0       0
 ---------------------------------------------------------------------------------
 (7) _ADC_ISR                                              0     0      0       0
 ---------------------------------------------------------------------------------
 Estimated maximum stack depth 7
 ---------------------------------------------------------------------------------

 Call Graph Graphs:

 _main (ROOT)
   _Timer0_Read_Value
   _Timer0_Write_Value
   ___lwdiv
   ___lwmod
   _application_intialize
     _Timer0_Init
       _Timer0_Mode_Select
       _Timer0_Prescaler_Config
       _Timer0_Register_Size_Config
     _gpio_pin_intialize
       _gpio_pin_direction_intialize
       _gpio_pin_write_logic
     _keypad_initialize
       _gpio_pin_direction_intialize
       _gpio_pin_intialize
     _lcd_4bit_intialize
       _gpio_pin_intialize
       _lcd_4bit_send_command
         _gpio_pin_write_logic
         _lcd_4bit_send_enable_signal
           _gpio_pin_write_logic
         _lcd_send_4bits
           _gpio_pin_write_logic
     _led_initialize
       _gpio_pin_intialize
     _seven_segement_intialize
       _gpio_pin_intialize
   _gpio_pin_write_logic
   _keypad_get_value
     _gpio_pin_read_logic
     _gpio_pin_write_logic
   _keypad_get_value_blocking
     _gpio_pin_read_logic
     _gpio_pin_write_logic
   _keypad_read_switch
     _gpio_pin_read_logic
     _gpio_pin_write_logic
   _lcd_4bit_send_char_data_pos
     _lcd_4bit_send_char_data
       _gpio_pin_write_logic
       _lcd_4bit_send_enable_signal
       _lcd_send_4bits
     _lcd_4bit_set_cursor
       _lcd_4bit_send_command
   _lcd_4bit_send_command
   _lcd_4bit_send_string_pos
     _lcd_4bit_send_char_data
     _lcd_4bit_set_cursor
   _led_turn_off
     _gpio_pin_write_logic
   _led_turn_on
     _gpio_pin_write_logic
   _seven_segement_write_number
     ___lwdiv (ARG)
     ___lwmod (ARG)
     _gpio_pin_write_logic (ARG)

 _InterruptManager (ROOT)
   _ADC_ISR
   _CCP1_ISR
   _CCP2_ISR
   _EUSART_RX_ISR
   _EUSART_TX_ISR
   _INT0_ISR
   _INT1_ISR
   _INT2_ISR
   _MSSP_I2C_BC_ISR
   _MSSP_I2C_ISR
   _RB4_ISR
   _RB5_ISR
   _RB6_ISR
   _RB7_ISR
   _TMR0_ISR
   _TMR1_ISR
   _TMR2_ISR
   _TMR3_ISR

 Address spaces:
Name               Size   Autos  Total    Cost      Usage
BIGRAM             F7F      0       0      48        0.0%
EEDATA             400      0       0       0        0.0%
BITBANK14          100      0       0      32        0.0%
BANK14             100      0       0      33        0.0%
BITBANK13          100      0       0      30        0.0%
BANK13             100      0       0      31        0.0%
BITBANK12          100      0       0      28        0.0%
BANK12             100      0       0      29        0.0%
BITBANK11          100      0       0      26        0.0%
BANK11             100      0       0      27        0.0%
BITBANK10          100      0       0      24        0.0%
BANK10             100      0       0      25        0.0%
BITBANK9           100      0       0      22        0.0%
BANK9              100      0       0      23        0.0%
BITBANK8           100      0       0      20        0.0%
BANK8              100      0       0      21        0.0%
BITBANK7           100      0       0      18        0.0%
BANK7              100      0       0      19        0.0%
BITBANK6           100      0       0      16        0.0%
BANK6              100      0       0      17        0.0%
BITBANK5           100      0       0      14        0.0%
BANK5              100      0       0      15        0.0%
BITBANK4           100      0       0      12        0.0%
BANK4              100      0       0      13        0.0%
BITBANK3           100      0       0      10        0.0%
BANK3              100      0       0      11        0.0%
BITBANK2           100      0       0       8        0.0%
BANK2              100      0       0       9        0.0%
BITBANK1           100      0       0       6        0.0%
BANK1              100      0       0       7        0.0%
BITBANK15           80      0       0      34        0.0%
BANK15              80      0       0      35        0.0%
BITBANK0            80      0       0       4        0.0%
BANK0               80      5      5F       5       74.2%
BITCOMRAM           7E      0       0       0        0.0%
COMRAM              7E     25      79       1       96.0%
BITBIGSFRlhhhhh     18      0       0      37        0.0%
BITBIGSFRh           D      0       0      36        0.0%
BITBIGSFRllllhh      6      0       0      44        0.0%
BITBIGSFRlhhhhh      5      0       0      38        0.0%
BITBIGSFRlhllll      4      0       0      41        0.0%
BITBIGSFRlllllh      4      0       0      45        0.0%
BITBIGSFRlllhh       4      0       0      42        0.0%
BITBIGSFRllllll      4      0       0      46        0.0%
BITBIGSFRlhllll      1      0       0      40        0.0%
BITBIGSFRlhhhhh      1      0       0      39        0.0%
BITBIGSFRlllhl       1      0       0      43        0.0%
BIGSFR               0      0       0     200        0.0%
BITSFR               0      0       0     200        0.0%
SFR                  0      0       0     200        0.0%
STACK                0      0       0       2        0.0%
NULL                 0      0       0       0        0.0%
ABS                  0      0      D8      47        0.0%
DATA                 0      0      D8       3        0.0%
CODE                 0      0       0       0        0.0%


Microchip Technology PIC18 Macro Assembler V2.41 build 20230208172133 
Symbol Table                                                                                   Fri Oct 20 19:45:14 2023

                            ??_InterruptManager 0041                                               l9 2DE2  
                               ?_lcd_send_4bits 004B                            Timer0_Read_Value@ret 0049  
                                   _SSPSTATbits 0FC7                                              l14 2712  
                                           l114 2B72                                             l124 2EDA  
                                           l140 291E                                             l109 2362  
                                           l214 2CBA                                             l310 1E38  
                                           l119 2AFC                                             l304 1FC8  
                                           l240 25DA                                             l217 2F8A  
                                           l340 29B2                                             l333 293E  
                                           l351 2A86                                             l344 2A10  
                                           l273 2824                                             l337 299A  
                                           l347 2A28                                             l287 247A  
                                           l724 210C                                             l750 2532  
                                           l743 2238                                             l764 2C52  
                          keypad_initialize@ret 0053                       _RB5_InterruptHandler_HIGH 000D  
                               __end_of_ADC_ISR 3084             __end_of_lcd_4bit_send_enable_signal 2F8C  
                   _lcd_4bit_send_enable_signal 2F56                             led_initialize@F3048 002D  
                                           prod 0FF3                           relay_initialize@F3042 0029  
                                           wreg 0FE8                    keypad_read_switch@status_pin 0058  
                                  ?_led_turn_on 004B                     lcd_send_4bits@_data_command 004D  
                               __end_of_RB4_ISR 301E                                 __end_of_RB5_ISR 3004  
                               __end_of_RB6_ISR 2FEA                                 __end_of_RB7_ISR 2FD0  
                                          l1320 28A2                                            l1309 2E3A  
                                          l2215 2BE6                                            l1319 28A2  
                                          l1327 2F18                                            l2208 2BDE  
                                          l2225 2D1E                                            l1281 25F6  
                                          l2218 2D16                                            l1283 267E  
                                          l1292 2FB2                                            l1293 2FB4  
                                          l1296 2E5E                                            l1298 2E90  
                                          l1714 27A4                                            l8011 2FAA  
                                          l8003 2F8C                                            l8021 2E66  
                                          l8005 2F8C                                            l8023 2E8A  
                                          l8015 2E3C                                            l8007 2F9E  
                                          l8031 2714                                            l8025 2E8E  
                                          l8017 2E44                                            l8009 2FA6  
                                          l7401 2C54                                            l8041 2750  
                                          l8033 2720                                            l8019 2E56  
                                          l7411 2F56                                            l7403 2C6A  
                                          l8051 278C                                            l8043 275C  
                                          l8035 272C                                            l8061 2B96  
                                          l7413 2F56                                            l7405 2C82  
                                          l8053 2798                                            l8045 2768  
                                          l8037 2738                                            l8029 2714  
                                          l7501 24A4                                            l8071 2BD0  
                                          l8063 2B9E                                            l8055 2B74  
                                          l7351 210E                                            l7431 2C24  
                                          l7423 2BE8                                            l7415 2F6A  
                                          l7407 2C9C                                            l7511 223A  
                                          l8047 2774                                            l8039 2744  
                                          l7503 24C6                                            l8073 2BD2  
                                          l8065 2BAC                                            l8057 2B7C  
                                          l8081 2CD6                                            l7361 21B0  
                                          l7353 2112                                            l7433 2C50  
                                          l7425 2BE8                                            l7417 2F72  
                                          l7441 2B14                                            l7513 223E  
                                          l8049 2780                                            l7505 24CE  
                                          l8075 2BD8                                            l8067 2BB2  
                                          l8059 2B8E                                            l8091 2D10  
                                          l8083 2CDE                                            l7451 2DFE  
                                          l7355 2124                                            l7427 2BFA  
                                          l7419 2F88                                            l7443 2B1C  
                                          l7531 22AA                                            l7515 2250  
                                          l7507 2530                                            l8069 2BC8  
                                          l8085 2CEC                                            l8077 2CBC  
                                          l7461 2840                                            l7453 2E00  
                                          l7701 2672                                            l7381 2002  
                                          l7365 220C                                            l7357 2146  
                                          l7429 2C1C                                            l7445 2B70  
                                          l7437 2AFE                                            l7541 22FE  
                                          l7533 22B8                                            l7525 227C  
                                          l7517 2258                                            l8087 2D02  
                                          l8079 2CCE                                            l7471 2882  
                                          l7463 2846                                            l7455 2E1E  
                                          l7703 2674                                            l7383 200A  
                                          l7391 210A                                            l7375 1FCA  
                                          l7359 214E                                            l7367 2236  
                                          l7631 27AE                                            l7439 2B02  
                                          l7551 234E                                            l7543 230E  
                                          l7535 22C8                                            l7527 2298  
                                          l7519 2278                                            l8089 2D0A  
                                          l7473 289C                                            l7465 2860  
                                          l7457 2E38                                            l7449 2DE4  
                                          l7481 2F16                                            l7705 2676  
                                          l7385 206C                                            l7377 1FCE  
                                          l7641 27CC                                            l7633 27C0  
                                          l7545 231E                                            l7537 22E8  
                                          l7529 229A                                            l7553 2360  
                                          l7801 2398                                            l7561 2A9E  
                                          l7721 26AA                                            l7713 2680  
                                          l8601 1294                                            l7467 2862  
                                          l7459 2826                                            l7475 2EDC  
                                          l7707 2678                                            l7379 1FE0  
                                          l7643 27DC                                            l7635 27C8  
                                          l7547 232E                                            l7539 22EE  
                                          l7491 2DE0                                            l7483 2D82  
                                          l7803 23A0                                            l7563 2AA6  
                                          l7571 2538                                            l7731 2EA8  
                                          l7723 2710                                            l7715 2680  
                                          l8611 12F8                                            l8603 12A4  
                                          l7469 287C                                            l7477 2EF6  
                                          l7709 267C                                            l7389 20C8  
                                          l7653 27F2                                            l7645 27DE  
                                          l7629 27A6                                            l7549 233E  
                                          l7485 2D82                                            l7821 23CE  
                                          l7901 1FA6                                            l7565 2AFA  
                                          l7557 2A88                                            l7573 253E  
                                          l7581 259E                                            l7733 2EB0  
                                          l7741 28A8                                            l7717 2692  
                                          l8701 175C                                            l8621 135C  
                                          l8613 1308                                            l8605 12B4  
                                          l8541 107E                                            l7479 2EFC  
                                          l7655 2810                                            l7647 27EE  
                                          l7399 2C54                                            l7671 2978  
                                          l7663 2920                                            l7487 2D94  
                                          l7495 247C                                            l7831 23EE  
                                          l7823 23E2                                            l7815 23A8  
                                          l7911 1C34                                            l7903 1FAA  
                                          l7559 2A8C                                            l7575 2556  
                                          l7583 25D8                                            l7735 2ED8  
                                          l7727 2E92                                            l7751 28FE  
                                          l7743 28BA                                            l7719 26A2  
                                          l8711 17A0                                            l8703 1764  
                                          l8631 13C0                                            l8623 136C  
                                          l8615 1318                                            l8607 12C4  
                                          l8551 10E6                                            l8543 1082  
                                          l7681 25DC                                            l7657 2812  
                                          l7673 297A                                            l7665 2924  
                                          l7489 2D9C                                            l7497 2480  
                                          l7841 2466                                            l7833 2414  
                                          l7825 23EA                                            l7817 23BC  
                                          l7809 23A4                                            l7921 1C5E  
                                          l7913 1C46                                            l7905 1FC6  
                                          l7577 256E                                            l7569 2534  
                                          l7729 2E96                                            l7753 291C  
                                          l7745 28C2                                            l8721 17EC  
                                          l8713 17AC                                            l8705 1766  
                                          l8641 142A                                            l8633 13D4  
                                          l8625 1390                                            l8617 133C  
                                          l8609 12E8                                            l8553 10F6  
                                          l8545 109E                                            l7691 263A  
                                          l7683 25DC                                            l7659 2822  
                                          l7675 298C                                            l7667 2936  
                                          l7499 2492                                            l7843 2468  
                                          l7835 2424                                            l7819 23BE  
                                          l7915 1C58                                            l7851 1E3E  
                                          l7579 2586                                            l7747 28DC  
                                          l7739 28A4                                            l8723 1808  
                                          l8715 17C2                                            l8707 1776  
                                          l8651 149E                                            l8643 1446  
                                          l8635 13E4                                            l8627 13A0  
                                          l8619 134C                                            l8571 1184  
                                          l8555 1112                                            l8547 10B4  
                                          l8539 107E                                            l7693 264A  
                                          l7685 25EE                                            l7669 2942  
                                          l7677 2998                                            l7837 2454  
                                          l7845 2478                                            l7941 1CA0  
                                          l7933 1C66                                            l7909 1C24  
                                          l7853 1E4A                                            l7749 28FA  
                                          l8717 17CE                                            l8709 1784  
                                          l8661 1562                                            l8653 14B4  
                                          l8645 145A                                            l8637 13F6  
                                          l8725 1824                                            l8629 13B0  
                                          l8581 11BC                                            l8573 1188  
                                          l8565 1148                                            l8557 112E  
                                          l8549 10D0                                            l7695 265E  
                                          l7687 25F8                                            l7839 2456  
                                          l7951 1CD6                                            l7943 1CAE  
                                          l7935 1C7A                                            l7927 1C62  
                                          l7871 1E86                                            l7855 1E5C  
                                          l8727 1826                                            l8719 17DE  
                                          l8671 15CE                                            l8663 1572  
                                          l8655 1500                                            l8647 1472  
                                          l8639 1412                                            l8591 121C  
                                          l8575 119C                                            l8583 11C4  
                                          l8567 115C                                            l8559 1144  
                                          l7697 2660                                            l7689 261C  
                                          l7937 1C7C                                            l7873 1E9A  
                                          l7865 1E7E                                            l7857 1E6E  
                                          l7849 1E3A                                            l8681 1654  
                                          l8673 15E6                                            l8665 158E  
                                          l8657 1518                                            l8649 1486  
                                          l8593 1240                                            l8585 11E8  
                                          l8577 11A0                                            l8569 1170  
                                          l7699 2662                                            l7795 2364  
                                          l7955 1D58                                            l7963 1E10  
                                          l7939 1C8C                                            l7891 1F10  
                                          l7875 1E9E                                            l7859 1E76  
                                          l7971 299C                                            l8691 16E6  
                                          l8683 1668                                            l8675 15FC  
                                          l8667 15A2                                            l8659 154C  
                                          l8595 1250                                            l8587 11F8  
                                          l8579 11A8                                            l7797 2374  
                                          l7965 1E12                                            l7957 1DDA  
                                          l7949 1CB2                                            l7893 1F36  
                                          l7885 1ED6                                            l7877 1EBA  
                                          l7981 29EE                                            l7973 299C  
                                          l8693 1708                                            l8685 1688  
                                          l8677 161C                                            l8669 15BA  
                                          l8597 1260                                            l8589 120C  
                                          l8791 2220                                            l7799 2386  
                                          l7967 1E22                                            l7959 1E0A  
                                          l7895 1F46                                            l7887 1EFC  
                                          l7879 1ECE                                            l7991 2A24  
                                          l7983 2A00                                            l7975 29AE  
                                          l8695 1714                                            l8687 16A4  
                                          l8679 1638                                            l8599 1270  
                                          l8793 20F4                                            l7969 1E24  
                                          l7897 1F86                                            l7993 2A2C  
                                          l7977 29B6                                            l8697 1724  
                                          l8689 16C6                                            l7899 1F8A  
                                          l7995 2A62                                            l7987 2A12  
                                          l7979 29EC                                            l8699 1740  
                                          l8789 25B2                                            l7997 2A64  
                                          l7989 2A12                                            l7999 2A76  
                                          STR_1 1079                                            STR_3 103D  
                                          STR_4 102F                                            STR_5 1020  
                                          STR_6 1067                                            STR_7 1053  
                                          STR_8 105D                                            STR_9 1071  
                                          _LATA 0F89                                            _LATB 0F8A  
                                          _LATC 0F8B                                            _LATD 0F8C  
                                          _LATE 0F8D                                            u6010 20E0  
                                          u6011 20DA                                            u6100 287C  
                                          u6020 20E2                                            u6004 208C  
                                          u6101 2878                                            u6005 2088  
                                          u6110 289C                                            u6030 2BFA  
                                          u6111 2898                                            u6031 2BF6  
                                          u6120 2EF6                                            u6040 2C1C  
                                          u6200 22AA                                            u6121 2EF2  
                                          u6041 2C18                                            u6201 22A6  
                                          u6130 2F16                                            u6050 2B14  
                                          u6210 2A9E                                            u6131 2F12  
                                          u6051 2B10                                            u6211 2A9A  
                                          u6060 2DFE                                            u6300 25EE  
                                          u6140 2D94                                            u6061 2DFA  
                                          u6301 25EA                                            u6141 2D90  
                                          u6070 2E38                                            u6150 2492  
                                          u6310 2692                                            u6071 2E34  
                                          u6151 248E                                            u6311 268E  
                                          u6080 2840                                            u6160 24A4  
                                          u6400 2386                                            u6320 26A2  
                                          u7200 119C                                            u6081 283C  
                                          u6161 24A0                                            u6401 2382  
                                          u6321 269E                                            u7201 1198  
                                          u6090 2860                                            u6250 27C0  
                                          u6170 24C6                                            u6410 2398  
                                          u6330 2EA8                                            u7210 11BC  
                                          u6091 285C                                            u6251 27BC  
                                          u6171 24C2                                            u6411 2394  
                                          u6331 2EA4                                            u7211 11B8  
                                          u6260 27EE                                            u6420 23CE  
                                          u6500 1F46                                            u6340 28BA  
                                          u7220 13E4                                            u6261 27EA  
                                          u6421 23CA                                            u6501 1F42  
                                          u6341 28B6                                            u7221 13E0  
                                          u6270 2822                                            u6190 2250  
                                          u6430 2424                                            u6510 1FA6  
                                          u6350 291C                                            u7230 13F6  
                                          u6271 281E                                            u6191 224C  
                                          u6431 2420                                            u6511 1FA2  
                                          u6351 2918                                            u7231 13F2  
                                          u6280 2936                                            u6184 251C  
                                          u6440 2466                                            u6600 1E22  
                                          u6520 1FC6                                            u7240 1836  
                                          u6281 2932                                            u6185 2518  
                                          u6441 2462                                            u6601 1E1E  
                                          u6521 1FC2                                            u7241 1832  
                                          u6450 2478                                            u6610 1E34  
                                          u6530 1C46                                            u6451 2474  
                                          u6611 1E30                                            u6531 1C42  
                                          u7307 12FE                                            u6700 2BC8  
                                          u6540 1C58                                            u6460 1E5C  
                                          u6620 29AE                                            u6701 2BC4  
                                          u6541 1C54                                            u6461 1E58  
                                          u6621 29AA                                            u7317 1352  
                                          u6710 2CCE                                            u6550 1C8C  
                                          u6470 1E6E                                            u7190 1170  
                                          u6711 2CCA                                            u6295 298A  
                                          u7407 1CA6                                            u6551 1C88  
                                          u6471 1E6A                                            u7327 13A6  
                                          u7191 116C                                            u6720 2CEC  
                                          u6480 1EBA                                            u6640 2A24  
                                          u6721 2CE8                                            u6297 298C  
                                          u7417 23E4                                            u6481 1EB6  
                                          u6641 2A20                                            u7337 141C  
                                          u7257 10A8                                            u6730 2D02  
                                          u5930 2124                                            u6570 1D58  
                                          u6490 1F0C                                            u6731 2CFE  
                                          u5931 2120                                            u7427 22B0  
                                          u6571 1D54                                            u6491 1F08  
                                          u6635 29FE                                            u7347 14A8  
                                          u7267 10DA                                            u6660 2F9E  
                                          u5940 2146                                            u6564 1D44  
                                          u6661 2F9A                                            u5941 2142  
                                          u7437 22CE                                            u6565 1D40  
                                          u6637 2A00                                            u7357 1556  
                                          u7277 1138                                            u6670 2E56  
                                          u6590 1DDA                                            u6671 2E52  
                                          u7447 22EA                                            u6591 1DD6  
                                          u6655 2A74                                            u7367 15F0  
                                          u7287 1256                                            u6680 2B8E  
                                          u6584 1DC6                                            u6681 2B8A  
                                          u7457 2F6C                                            u6585 1DC2  
                                          u6657 2A76                                            u7377 177C  
                                          u7297 12AA                                            u6690 2BAC  
                                          u5970 1FE0                                            u5954 216E  
                                          u6691 2BA8                                            u5971 1FDC  
                                          u5955 216A                                            u7387 17B6  
                                          u5980 2002                                            u5964 21D0  
                                          u5981 1FFE                                            u5965 21CC  
                                          u7397 17E4                                            u5994 202A  
                                          u5995 2026                                            _TMR2 0FCC  
                       ??_application_intialize 005A                   ??_lcd_4bit_send_enable_signal 004D  
                      _RB4_InterruptHandler_LOW 000F                                            _led1 003F  
                                          _led2 0079                                            _main 107E  
                              __end_of_CCP1_ISR 3080                                __end_of_CCP2_ISR 307C  
                      _RB7_InterruptHandler_LOW 00D2                                            fsr2h 0FDA  
                                          indf2 0FDF                                            fsr1l 0FE1  
                                          fsr2l 0FD9                                            btemp 007A  
                        __end_of_led_initialize 299C               lcd_4bit_send_char_data_pos@column 005E  
                                          prodh 0FF4                                            prodl 0FF3  
                                          start 000E                                   ?_led_turn_off 004B  
                       Timer0_Read_Value@_value 0043                         Timer0_Read_Value@_timer 0041  
                                  ___param_bank 0000                           _lcd_4bit_send_command 2AFE  
                            _Timer0_Write_Value 2F8C                            _gpio_pin_write_logic 210E  
                lcd_4bit_send_string_pos@column 005E                           lcd_4bit_intialize@lcd 0054  
                         lcd_4bit_intialize@ret 0059                                __end_of_INT0_ISR 3074  
                              __end_of_INT1_ISR 3070                                __end_of_INT2_ISR 306C  
                                 _EUSART_RX_ISR 3084                                   _EUSART_TX_ISR 3074  
                                         ?_main 0040                                           _EEADR 0FA9  
                                         STR_10 1020                                           STR_11 1067  
                                         STR_12 1011                                           STR_13 1048  
                                         STR_14 1067                                 __end_of___lwdiv 2BE8  
                           ?_Timer0_Write_Value 0041                                 __end_of___lwmod 2D20  
                                         i2l620 307A                                           i2l534 3082  
                                         i2l615 307E                                           i2l922 3062  
                                         i2l926 3066                                           _RCREG 0FAE  
                           relay_turn_off@F3052 0027                                           _TMR0H 0FD7  
                                         _TMR1H 0FCF                                           _TMR0L 0FD6  
                                         _TMR1L 0FCE                                           _TMR3H 0FB3  
                                         _TMR3L 0FB2                                           _SPBRG 0FAF  
                                         _PORTA 0F80                                           _PORTB 0F81  
                                         _PORTC 0F82                                           _PORTD 0F83  
                                         _PORTE 0F84                                           _TRISA 0F92  
                                         _TRISB 0F93                                           _TRISC 0F94  
                                         _TRISD 0F95                                           _TRISE 0F96  
                             Timer0_Init@_timer 0044                                           _TXREG 0FAD  
                     lcd_4bit_set_cursor@coulmn 0057                                           _Hours 0065  
                      __end_of_keypad_get_value 247C                                __end_of_TMR0_ISR 3058  
                              __end_of_TMR1_ISR 304C                                __end_of_TMR2_ISR 3060  
                              __end_of_TMR3_ISR 3040      lcd_4bit_send_char_data@l_data_pins_counter 0052  
                                         _lcd_1 006D                            led_initialize@object 0053  
      lcd_4bit_send_command@l_data_pins_counter 0052                                           tablat 0FF5  
                                         ttemp5 007B                                           ttemp6 007E  
                                         ttemp7 0082                                           status 0FD8  
                                         wtemp8 007B                            ??_Timer0_Write_Value 0045  
                               ?_led_initialize 004F                         _Timer0_Prescaler_Config 2DE4  
                                ??_led_turn_off 004D               keypad_get_value@l_columns_counter 0055  
                               __initialization 2D20                             keypad_get_value@ret 0051  
                                  __end_of_main 183E                   gpio_pin_read_logic@pin_config 0041  
                         ?_gpio_pin_write_logic 0041                        Timer0_Read_Value@l_tmr0h 0048  
                      Timer0_Read_Value@l_tmr0l 0047                                       ??_ADC_ISR 0040  
                                ?_EUSART_RX_ISR 0040                                  ?_EUSART_TX_ISR 0040  
                      gpio_pin_read_logic@logic 0043                                          ??_main 0063  
                                 __activetblptr 0003                           _TMR3_InterruptHandler 00CA  
                              led_turn_on@F3053 002C                                       ??_RB4_ISR 0040  
                                     ??_RB5_ISR 0040                                       ??_RB6_ISR 0040  
                                     ??_RB7_ISR 0040                __end_of_seven_segement_intialize 2DE4  
                    _EUSART_OverrunErrorHandler 00C2                                          _ADRESH 0FC4  
                                        _EEADRH 0FAA                                          _ADRESL 0FC3  
                                        _EEDATA 0FA8                                          _CCPR1H 0FBF  
                                        _CCPR2H 0FBC                                          _CCPR1L 0FBE  
                                        _CCPR2L 0FBB                                          _EECON2 0FA7  
                                        i2l1010 1928                                          i2l1002 1860  
                                        i2l1020 1A7C                                          i2l1012 196C  
                                        i2l1004 1880                                          i2l1102 306E  
                                        i2l1030 1B40                                          i2l1022 1AC0  
                                        i2l1014 19B0                                          i2l1006 18A0  
                                        i2l1040 1BE0                                          i2l1032 1B60  
                                        i2l1024 1AE0                                          i2l1016 19F4  
                                        i2l1008 18E4                                          i2l1042 1C00  
                                        i2l1034 1B80                                          i2l1026 1B00  
                                        i2l1018 1A38                                          i2l1107 306A  
                                        i2l1140 2FE8                                          i2l1036 1BA0  
                                        i2l1028 1B20                                          i2l1045 1C20  
                                        i2l1118 301C                                          i2l1302 3056  
                                        i2l1038 1BC0                                          i2l1151 2FCE  
                                        i2l1129 3002                                          i2l1422 305E  
                                        i2l3111 3080                                          i2l3121 3078  
                                        i2l1097 3072                                          i2l3115 307C  
                                        i2l1371 304A                                          i2l1607 3084  
                                        i2l3143 3064                                          i2l3153 306C  
                                        i2l1466 303E                                          i2l3147 3070  
                                        i2l3139 3060                                          i2l3173 301C  
                                        i2l3165 3006                                          i2l3181 2FEE  
                                        i2l3159 3068                                          i2l3167 3008  
                                        i2l6001 2FE8                                          i2l3187 3002  
                                        i2l3179 2FEC                                          i2l6021 304C  
                                        i2l1598 3076                                          i2l6015 2FCE  
                                        i2l6007 2FB8                                          i2l6023 304E  
                                        i2l6031 3042                                          i2l6009 2FBA  
                                        i2l6025 3052                                          i2l6033 3046  
                                        i2l6041 3034                                          i2l6043 3036  
                                        i2l6029 3040                                          i2l6037 3058  
                                        i2l6045 303A                                          i2l6055 3084  
                                        i2l6049 3074                                          i2l6801 1922  
                                        i2l6811 1966                                          i2l6803 1936  
                                        i2l6901 1BFC                                          i2l6821 19AA  
                                        i2l6813 197A                                          i2l6805 1944  
                                        i2l6903 1C0E                                          i2l6831 19EE  
                                        i2l6823 19BE                                          i2l6815 1988  
                                        i2l6807 1952                                          i2l6905 1C1C  
                                        i2l6841 1A32                                          i2l6833 1A02  
                                        i2l6825 19CC                                          i2l6817 1996  
                                        i2l6809 1962                                          i2l6851 1A76  
                                        i2l6843 1A46                                          i2l6835 1A10  
                                        i2l6827 19DA                                          i2l6819 19A6  
                                        i2l6771 184E                                          i2l6861 1ABA  
                                        i2l6853 1A8A                                          i2l6845 1A54  
                                        i2l6837 1A1E                                          i2l6829 19EA  
                                        i2l6781 189C                                          i2l6773 185C  
                                        i2l6871 1B0E                                          i2l6863 1ACE  
                                        i2l6855 1A98                                          i2l6847 1A62  
                                        i2l6839 1A2E                                          i2l6791 18DE  
                                        i2l6783 18AE                                          i2l6775 186E  
                                        i2l5993 2FD2                                          i2l6881 1B5C  
                                        i2l6873 1B1C                                          i2l6865 1ADC  
                                        i2l6857 1AA6                                          i2l6849 1A72  
                                        i2l6793 18F2                                          i2l6785 18BC  
                                        i2l6777 187C                                          i2l6769 1840  
                                        i2l5995 2FD4                                          i2l6891 1BAE  
                                        i2l6883 1B6E                                          i2l6875 1B2E  
                                        i2l6867 1AEE                                          i2l6859 1AB6  
                                        i2l6795 1900                                          i2l6787 18CA  
                                        i2l6779 188E                                          i2l6893 1BBC  
                                        i2l6885 1B7C                                          i2l6877 1B3C  
                                        i2l6869 1AFC                                          i2l6797 190E  
                                        i2l6789 18DA                                          i2l6895 1BCE  
                                        i2l6887 1B8E                                          i2l6879 1B4E  
                                        i2l6799 191E                                          i2l6897 1BDC  
                                        i2l6889 1B9C                                          i2l6899 1BEE  
             __end_of_keypad_get_value_blocking 1E3A                                          _SPBRGH 0FB0  
                                        _SSPADD 0FC8                                          _SSPBUF 0FC9  
                     keypad_get_value@l_counter 0053                                   _tris_register 0094  
              __end_of_lcd_4bit_send_string_pos 2920                                   ??_Timer0_Init 0046  
                        ?_lcd_4bit_send_command 004F            keypad_get_value_blocking@_keypad_obj 004B  
                   seven_segement_intialize@seg 004F                    ?_Timer0_Register_Size_Config 0041  
                   seven_segement_intialize@ret 0051               Timer0_Register_Size_Config@_timer 0041  
                                     ??___lwdiv 0045                                       ??___lwmod 0045  
                         keypad_read_switch@col 0059                           keypad_read_switch@ret 0053  
                         keypad_read_switch@row 0056                                          clear_0 2D66  
                                        clear_1 2D72                                          isa$std 0001  
   _I2C_Report_Receive_Overflow_InterruptHandle 00D8                                       ?_CCP1_ISR 0040  
                                  __pdataCOMRAM 0065                                       ?_CCP2_ISR 0040  
                                  __mediumconst 0000                                          tblptrh 0FF7  
                                        tblptrl 0FF6                                          tblptru 0FF8  
    keypad_get_value_blocking@l_columns_counter 005B                       ??_Timer0_Prescaler_Config 0043  
         keypad_get_value_blocking@column_logic 0058                                      __accesstop 0080  
                       __end_of__initialization 2D78                                       ?_INT0_ISR 0040  
                                     ?_INT1_ISR 0040                                       ?_INT2_ISR 0040  
                                 ___rparam_used 0001                                ??_lcd_send_4bits 004E  
                             led_initialize@led 004F                               led_initialize@ret 0052  
                       _lcd_4bit_send_char_data 2A88                               RB5_ISR@RB5_Source 0040  
                        ??_gpio_pin_write_logic 0044                                  __pcstackCOMRAM 0040  
                    _I2C_DefaultInterruptHandle 0019                                    __pidataBANK0 2F1A  
                      dc_motor_initialize@F3047 0035                        dc_motor_initialize@F3049 0034  
                                     ?_TMR0_ISR 0040                                 ??_EUSART_RX_ISR 0040  
                                     ?_TMR1_ISR 0040                                       ?_TMR2_ISR 0040  
                                     ?_TMR3_ISR 0040                      __end_of_keypad_read_switch 1FCA  
                               ??_EUSART_TX_ISR 0040                   ??_Timer0_Register_Size_Config 0043  
                           __end_of_Timer0_Init 2680                        lcd_4bit_send_command@lcd 004F  
                      lcd_4bit_send_command@ret 0053                                      ??_CCP1_ISR 0040  
                                    ??_CCP2_ISR 0040                            __end_of_led_turn_off 2A88  
                  ?_lcd_4bit_send_char_data_pos 005B                                      __pbssBANK0 00BC  
                         _INT0_InterruptHandler 0017                                      ??_INT0_ISR 0040  
                                    ??_INT1_ISR 0040                                      ??_INT2_ISR 0040  
                 __end_of_application_intialize 27A6                           Timer0_Write_Value@ret 0045  
                                    ??_TMR0_ISR 0040                                      ??_TMR1_ISR 0040  
                                    ??_TMR2_ISR 0040                                      ??_TMR3_ISR 0040  
                     ?_seven_segement_intialize 004F                               led_turn_off@F3058 002B  
                                       _ADC_ISR 3080                        dc_motor_move_right@F3054 0033  
                      dc_motor_move_right@F3056 0032  lcd_4bit_send_char_data_pos@l_data_pins_counter 0060  
                             RB7_ISR@RB7_Source 0040                                         _RB4_ISR 3004  
                                       _RB5_ISR 2FEA                                         _RB6_ISR 2FD0  
                                       _RB7_ISR 2FB6                       ?_lcd_4bit_send_string_pos 005B  
                     _RB6_InterruptHandler_HIGH 0009                                   ?_MSSP_I2C_ISR 0040  
                             led_turn_on@object 004E                            led_turn_toggle@F3063 002A  
                                       i2u84_40 3018                                         i2u84_41 3014  
                                       i2u85_40 2FFE                                         i2u85_41 2FFA  
                             ?_keypad_get_value 004B                                ??_led_initialize 0051  
               CCP_Compare_Mode_Set_Value@F3106 001D                              ??_keypad_get_value 004F  
                                    _btn_values 1001                  keypad_get_value_blocking@value 004D  
                      _RB6_InterruptHandler_LOW 00D6                       ??_lcd_4bit_send_char_data 0052  
                             ??_MSSP_I2C_BC_ISR 0040                            _ADC_InterruptHandler 0023  
                                       __Hparam 0000                                     _Timer0_Init 25DC  
                                       _Minutes 0067                                         _Seconds 0001  
                                       __Lparam 0000                    ?_seven_segement_write_number 004B  
                             _Timer0_Read_Value 2E3C                             _gpio_pin_read_logic 247C  
                                       ___lwdiv 2B74                                         ___lwmod 2CBC  
                            ?_Timer0_Read_Value 0041                keypad_initialize@columns_counter 0055  
                                  __psmallconst 1000                      __end_of_gpio_pin_intialize 2C54  
                                       __pcinit 2D20                                         __ramtop 1000  
                                       __ptext0 107E                                         __ptext1 2680  
                                       __ptext2 299C                                         __ptext3 2A12  
                                       __ptext4 28A4                                         __ptext5 2E92  
                                       __ptext6 2534                                         __ptext7 2A88  
                                       __ptext8 1E3A                                         __ptext9 1C24  
                                     _T0CONbits 0FD5                                       _T1CONbits 0FCD  
                                       _counter 0025                                  ??_MSSP_I2C_ISR 0040  
                                     _T2CONbits 0FCA                             ??_Timer0_Read_Value 0045  
                                       _keypad1 00A8                                       _T3CONbits 0FB1  
                                       _value11 003D                                         _value12 003C  
                                       _value21 003B                                         _value22 003A  
                                       _value31 0039                                         _value32 0038  
                          ?_gpio_pin_read_logic 0041                                         main@ret 00DE  
         lcd_4bit_intialize@l_data_pins_counter 0058                                  __pintcode_body 183E  
                          end_of_initialization 2D78                               lcd_send_4bits@lcd 004B  
                             lcd_send_4bits@ret 004E                                         int_func 183E  
                    __end_of_lcd_4bit_intialize 2364                              dc_motor_stop@F3070 002E  
                            dc_motor_stop@F3068 002F                         ??_lcd_4bit_send_command 0052  
                     __end_of_Timer0_Read_Value 2E92                           gpio_pin_intialize@ret 004E  
                                     _RCSTAbits 0FAB                                         postdec1 0FE5  
                                       postdec2 0FDD                                         postinc0 0FEE  
                                       postinc2 0FDE                   ??_seven_segement_write_number 004E  
               __end_of_lcd_4bit_send_char_data 2AFE                           _INT1_InterruptHandler 0015  
                                     _PORTBbits 0F81                                _InterruptManager 0008  
                  keypad_get_value@column_logic 0052                      lcd_4bit_send_char_data@lcd 004F  
                    lcd_4bit_send_char_data@ret 0053            __end_of_gpio_pin_direction_intialize 210E  
                  _gpio_pin_direction_intialize 1FCA                                       _TRISCbits 0F94  
                 Timer0_Prescaler_Config@_timer 0041                           ??_gpio_pin_read_logic 0045  
       keypad_get_value_blocking@l_rows_counter 005A                 lcd_4bit_send_char_data_pos@data 005F  
                                   _CCP1CONbits 0FBD                                     _CCP2CONbits 0FBA  
                                     _TXSTAbits 0FAC                      ?_keypad_get_value_blocking 004B  
                    __end_of_Timer0_Mode_Select 28A4                                    _led_turn_off 2A12  
                           _lcd_4bit_set_cursor 2534                              relay_turn_on@F3047 0028  
                   lcd_4bit_send_string_pos@lcd 005B                     lcd_4bit_send_string_pos@ret 0062  
                   lcd_4bit_send_string_pos@row 005D                     lcd_4bit_send_string_pos@str 005F  
                         keypad_get_value@value 004D                   convert_uint16_to_string@F3207 00BC  
                                   _BAUDCONbits 0FB8                                   __pidataCOMRAM 301E  
                                _timer0_preload 0007                             keypad_read_switch@i 0054  
                                _timer1_preload 0005                                  _timer2_preload 0026  
                           start_initialization 2D20                                   ??_led_turn_on 004D  
                                _timer3_preload 0003                    ?_lcd_4bit_send_enable_signal 004B  
                          ?_lcd_4bit_set_cursor 0054                              _keypad_read_switch 1E3A  
                 ?_gpio_pin_direction_intialize 0041                                    _lat_register 008A  
                           ?_keypad_read_switch 004B                       _EUSART_RxInterruptHandler 00C6  
                       dc_motor_move_left@F3061 0031                         dc_motor_move_left@F3063 0030  
                               led_turn_off@led 004B                            __end_of_MSSP_I2C_ISR 3064  
   lcd_4bit_send_string_pos@l_data_pins_counter 0061                      _EUSART_FramingErrorHandler 00C4  
                                   __pdataBANK0 0080                        Timer0_Write_Value@_value 0043  
                      Timer0_Write_Value@_timer 0041                                        ?_ADC_ISR 0040  
                         __end_of_EUSART_RX_ISR 3086                            ??_keypad_read_switch 004F  
                         __end_of_EUSART_TX_ISR 3078                    lcd_4bit_send_command@command 0051  
                                      ?_RB4_ISR 0040                                        ?_RB5_ISR 0040  
                                      ?_RB6_ISR 0040                                        ?_RB7_ISR 0040  
                                   __pbssCOMRAM 0001                           ??_lcd_4bit_set_cursor 0058  
   _I2C_Report_Write_Collision_InterruptHandler 001B                                   __pcstackBANK0 00DA  
                      ?_Timer0_Prescaler_Config 0041                                 _MSSP_I2C_BC_ISR 3064  
                           __end_of_led_turn_on 2A12                              _timer0_counter_obj 00B0  
                         _INT2_InterruptHandler 0013                  gpio_pin_write_logic@pin_config 0041  
               gpio_pin_direction_intialize@ret 0049                           _TMR0_InterruptHandler 00D0  
                                  ?_Timer0_Init 0044                                ___lwdiv@dividend 0041  
                 keypad_initialize@rows_counter 0054                           _application_intialize 2714  
                seven_segement_write_number@seg 004B                  seven_segement_write_number@ret 004E  
           __end_of_Timer0_Register_Size_Config 2F1A                     _Timer0_Register_Size_Config 2EDC  
                                     __pintcode 0008                                        ?___lwdiv 0041  
                                      ?___lwmod 0041                       gpio_pin_write_logic@logic 0043  
                                   __smallconst 1000                       _RB4_InterruptHandler_HIGH 0011  
                                      _CCP1_ISR 307C                                        _CCP2_ISR 3078  
                     _RB7_InterruptHandler_HIGH 00D4                        keypad_read_switch@keypad 004B  
                              ___lwdiv@quotient 0046                                       _key_value 003E  
                            _gpio_pin_intialize 2BE8                        keypad_read_switch@status 004D  
                ??_gpio_pin_direction_intialize 0043                        _RB5_InterruptHandler_LOW 000B  
                                      _INT0_ISR 3070                                        _INT1_ISR 306C  
                                      _INT2_ISR 3068                                       _seg_pin_1 0078  
                                     _seg_pin_2 0077                                       _seg_pin_3 0076  
                                     _seg_pin_4 0075                                       _seg_pin_5 0074  
                                     _seg_pin_6 0073                                        _RB4_Flag 006C  
                                      _RB5_Flag 006B                                        _RB6_Flag 006A  
                                      _RB7_Flag 0069                               RB4_ISR@RB4_Source 0040  
                           ?_gpio_pin_intialize 004B                        __end_of_InterruptManager 1C24  
                                      _PIE1bits 0F9D                                        _PIE2bits 0FA0  
                                     _segment_1 00B7                        _seven_segement_intialize 2D82  
                            led_turn_off@object 004E                   __end_of_lcd_4bit_send_command 2B74  
                                      i2u510_40 18CA                                        i2u502_40 184E  
                                      i2u510_41 18C6                                        i2u502_41 184A  
                                      i2u511_40 18DA                                        i2u503_40 185C  
                                      i2u511_41 18D6                                        i2u503_41 1858  
                                      i2u416_40 2FE4                                        i2u520_40 197A  
                                      i2u512_40 18F2                                        i2u504_40 186E  
                                      i2u416_41 2FE0                                        i2u520_41 1976  
                                      i2u512_41 18EE                                        i2u504_41 186A  
                                      i2u417_40 2FCA                                        i2u521_40 1988  
                                      i2u513_40 1900                                        i2u505_40 187C  
                                      i2u417_41 2FC6                                        i2u521_41 1984  
                                      i2u513_41 18FC                                        i2u505_41 1878  
                                      _PIR1bits 0F9E                                        i2u530_40 1A1E  
                                      i2u522_40 1996                                        i2u514_40 190E  
                                      i2u506_40 188E                                        i2u530_41 1A1A  
                                      i2u522_41 1992                                        i2u514_41 190A  
                                      i2u506_41 188A                                        i2u531_40 1A2E  
                                      i2u523_40 19A6                                        i2u515_40 191E  
                                      i2u507_40 189C                                        i2u531_41 1A2A  
                                      i2u523_41 19A2                                        i2u515_41 191A  
                                      i2u507_41 1898                                        _PIR2bits 0FA1  
                                      i2u540_40 1ACE                                        i2u532_40 1A46  
                                      i2u524_40 19BE                                        i2u516_40 1936  
                                      i2u508_40 18AE                                        i2u540_41 1ACA  
                                      i2u532_41 1A42                                        i2u524_41 19BA  
                                      i2u516_41 1932                                        i2u508_41 18AA  
                                      i2u541_40 1ADC                                        i2u533_40 1A54  
                                      i2u525_40 19CC                                        i2u517_40 1944  
                                      i2u509_40 18BC                                        i2u541_41 1AD8  
                                      i2u533_41 1A50                                        i2u525_41 19C8  
                                      i2u517_41 1940                                        i2u509_41 18B8  
                                      i2u550_40 1B6E                                        i2u542_40 1AEE  
                                      i2u534_40 1A62                                        i2u526_40 19DA  
                                      i2u518_40 1952                                        i2u550_41 1B6A  
                                      i2u542_41 1AEA                                        i2u534_41 1A5E  
                                      i2u526_41 19D6                                        i2u518_41 194E  
                                      i2u551_40 1B7C                                        i2u543_40 1AFC  
                                      i2u535_40 1A72                                        i2u527_40 19EA  
                                      i2u519_40 1962                                        i2u551_41 1B78  
                                      i2u543_41 1AF8                                        i2u535_41 1A6E  
                                      i2u527_41 19E6                                        i2u519_41 195E  
                                      i2u560_40 1C0E                                        i2u552_40 1B8E  
                                      i2u544_40 1B0E                                        i2u536_40 1A8A  
                                      i2u528_40 1A02                                        i2u560_41 1C0A  
                                      i2u552_41 1B8A                                        i2u544_41 1B0A  
                                      i2u536_41 1A86                                        i2u528_41 19FE  
                                      i2u561_40 1C1C                                        i2u553_40 1B9C  
                                      i2u545_40 1B1C                                        i2u537_40 1A98  
                                      i2u529_40 1A10                                        i2u561_41 1C18  
                                      i2u553_41 1B98                                        i2u545_41 1B18  
                                      i2u537_41 1A94                                        i2u529_41 1A0C  
                                      i2u554_40 1BAE                                        i2u546_40 1B2E  
                                      i2u538_40 1AA6                                        i2u554_41 1BAA  
                                      i2u546_41 1B2A                                        i2u538_41 1AA2  
                                      i2u555_40 1BBC                                        i2u547_40 1B3C  
                                      i2u539_40 1AB6                                        i2u555_41 1BB8  
                                      i2u547_41 1B38                                        i2u539_41 1AB2  
                                      i2u556_40 1BCE                                        i2u548_40 1B4E  
                                      i2u556_41 1BCA                                        i2u548_41 1B4A  
                                      i2u557_40 1BDC                                        i2u549_40 1B5C  
                                      i2u557_41 1BD8                                        i2u549_41 1B58  
                                      i2u558_40 1BEE                                        i2u558_41 1BEA  
                                      i2u559_40 1BFC                                        i2u559_41 1BF8  
                                      _TMR0_ISR 304C                                        _TMR1_ISR 3040  
                                      _TMR2_ISR 3058                                        _TMR3_ISR 3034  
                            _lcd_4bit_intialize 223A                        _lcd_4bit_send_string_pos 28A4  
                                    _ADCON0bits 0FC2                                      _ADCON1bits 0FC1  
                                    _ADCON2bits 0FC0                         __end_of_MSSP_I2C_BC_ISR 3068  
               __end_of_Timer0_Prescaler_Config 2E3C                            ??_gpio_pin_intialize 004D  
                lcd_4bit_send_char_data_pos@lcd 005B                  lcd_4bit_send_char_data_pos@ret 0061  
                lcd_4bit_send_char_data_pos@row 005D                             ?_lcd_4bit_intialize 0054  
                                   _led_turn_on 299C             __end_of_lcd_4bit_send_char_data_pos 2EDC  
                   _lcd_4bit_send_char_data_pos 2E92                         gpio_pin_write_logic@ret 004A  
                                   _INTCON2bits 0FF1                                     _INTCON3bits 0FF0  
                      ?_lcd_4bit_send_char_data 004F                                       copy_data0 2D34  
                                     copy_data1 2D54                               _keypad_initialize 27A6  
                    __end_of_Timer0_Write_Value 2FB6                              ?_keypad_initialize 004F  
                        gpio_pin_read_logic@ret 004A                   ??_lcd_4bit_send_char_data_pos 0060  
                                    _EECON1bits 0FA6                     ??_keypad_get_value_blocking 004F  
                        ?_application_intialize 0040                            ??_lcd_4bit_intialize 0056  
                                led_turn_on@led 004B                                        __Hrparam 0000  
                                      __Lrparam 0000                             ??_keypad_initialize 0051  
                             RB6_ISR@RB6_Source 0040                           _CCP1_InterruptHandler 0021  
                        lcd_4bit_set_cursor@lcd 0054                          lcd_4bit_set_cursor@ret 005A  
                        lcd_4bit_set_cursor@row 0056                              _Timer0_Mode_Select 2826  
                            __end_of_btn_values 1011                     __end_of_gpio_pin_read_logic 2534  
                         _TMR1_InterruptHandler 00CE                     keypad_get_value@_keypad_obj 004B  
            keypad_get_value_blocking@l_counter 0059                                    _MSSP_I2C_ISR 3060  
                               ___lwdiv@divisor 0043                             ?_Timer0_Mode_Select 0041  
                               ___lwdiv@counter 0045                       __end_of_keypad_initialize 2826  
                                      __ptext10 2364                                        __ptext11 247C  
                                      __ptext20 2BE8                                        __ptext12 2714  
                                      __ptext21 210E                                        __ptext13 2D82  
                                      __ptext30 2E3C                                        __ptext22 1FCA  
                                      __ptext14 2920                                        __ptext23 25DC  
                                      __ptext15 223A                                        __ptext40 3060  
                                      __ptext32 3034                                        __ptext24 2EDC  
                                      __ptext16 2AFE                                        __ptext41 3064  
                                      __ptext33 3058                                        __ptext25 2DE4  
                                      __ptext17 2C54                                        __ptext42 3068  
                                      __ptext34 3040                                        __ptext26 2826  
                                      __ptext18 2F56                                        __ptext43 306C  
                                      __ptext35 304C                                        __ptext27 2CBC  
                                      __ptext19 27A6                                        __ptext44 3070  
                                      __ptext36 2FB6                                        __ptext28 2B74  
                                      __ptext45 3074                                        __ptext37 2FD0  
                                      __ptext29 2F8C                                        __ptext46 3084  
                                      __ptext38 2FEA                                        __ptext47 3078  
                                      __ptext39 3004                                        __ptext48 307C  
                                      __ptext49 3080                    gpio_pin_intialize@pin_config 004B  
           __end_of_seven_segement_write_number 2714                     _seven_segement_write_number 2680  
                              _keypad_get_value 2364                            ??_Timer0_Mode_Select 0043  
                                      isa$xinst 0000                                 main@mul_minutes 00DC  
                               main@mul_seconds 00DA                                        int$flags 007A  
                                _lcd_send_4bits 2C54                                  Timer0_Init@ret 0048  
                     _keypad_get_value_blocking 1C24                        Timer0_Mode_Select@_timer 0041  
                              ?_MSSP_I2C_BC_ISR 0040                                      _INTCONbits 0FF2  
                keypad_get_value@l_rows_counter 0054                    __end_of_gpio_pin_write_logic 223A  
                                      intlevel2 0000               seven_segement_write_number@number 004D  
                lcd_4bit_send_enable_signal@lcd 004B                                ___lwmod@dividend 0041  
                lcd_4bit_send_enable_signal@ret 004D                       _EUSART_TxInterruptHandler 00C8  
                  keypad_initialize@_keypad_obj 004F          gpio_pin_direction_intialize@pin_config 0041  
                        __end_of_lcd_send_4bits 2CBC                     __end_of_lcd_4bit_set_cursor 25DC  
                                _port_registers 009E                                 ___lwmod@divisor 0043  
                               ___lwmod@counter 0045                                     _SSPCON1bits 0FC6  
                                   _SSPCON2bits 0FC5                      ??_seven_segement_intialize 0051  
                         _CCP2_InterruptHandler 001F                                   _port_register 0080  
                   lcd_4bit_send_char_data@data 0051                           _TMR2_InterruptHandler 00CC  
                             ?_InterruptManager 0040                      ??_lcd_4bit_send_string_pos 0061  
                                 _Counter_Value 0036                                  _led_initialize 2920  
